
RocketPayloadCode.elf:     file format elf32-littlearm

Sections:
Idx Name          Size      VMA       LMA       File off  Algn
  0 .isr_vector   00000194  08000000  08000000  00010000  2**0
                  CONTENTS, ALLOC, LOAD, READONLY, DATA
  1 .text         00004a24  08000198  08000198  00010198  2**3
                  CONTENTS, ALLOC, LOAD, READONLY, CODE
  2 .rodata       00000240  08004bc0  08004bc0  00014bc0  2**3
                  CONTENTS, ALLOC, LOAD, READONLY, DATA
  3 .ARM.extab    00000000  08004e00  08004e00  000201dc  2**0
                  CONTENTS
  4 .ARM          00000008  08004e00  08004e00  00014e00  2**2
                  CONTENTS, ALLOC, LOAD, READONLY, DATA
  5 .preinit_array 00000000  08004e08  08004e08  000201dc  2**0
                  CONTENTS, ALLOC, LOAD, DATA
  6 .init_array   00000004  08004e08  08004e08  00014e08  2**2
                  CONTENTS, ALLOC, LOAD, DATA
  7 .fini_array   00000004  08004e0c  08004e0c  00014e0c  2**2
                  CONTENTS, ALLOC, LOAD, DATA
  8 .data         000001dc  20000000  08004e10  00020000  2**2
                  CONTENTS, ALLOC, LOAD, DATA
  9 .bss          000000c8  200001dc  08004fec  000201dc  2**2
                  ALLOC
 10 ._user_heap_stack 00000604  200002a4  08004fec  000202a4  2**0
                  ALLOC
 11 .ARM.attributes 00000030  00000000  00000000  000201dc  2**0
                  CONTENTS, READONLY
 12 .debug_info   0000887f  00000000  00000000  0002020c  2**0
                  CONTENTS, READONLY, DEBUGGING
 13 .debug_abbrev 000016e0  00000000  00000000  00028a8b  2**0
                  CONTENTS, READONLY, DEBUGGING
 14 .debug_aranges 00000738  00000000  00000000  0002a170  2**3
                  CONTENTS, READONLY, DEBUGGING
 15 .debug_ranges 00000670  00000000  00000000  0002a8a8  2**3
                  CONTENTS, READONLY, DEBUGGING
 16 .debug_macro  00001980  00000000  00000000  0002af18  2**0
                  CONTENTS, READONLY, DEBUGGING
 17 .debug_line   00006994  00000000  00000000  0002c898  2**0
                  CONTENTS, READONLY, DEBUGGING
 18 .debug_str    00088dd2  00000000  00000000  0003322c  2**0
                  CONTENTS, READONLY, DEBUGGING
 19 .comment      0000007b  00000000  00000000  000bbffe  2**0
                  CONTENTS, READONLY
 20 .debug_frame  0000249c  00000000  00000000  000bc07c  2**2
                  CONTENTS, READONLY, DEBUGGING

Disassembly of section .text:

08000198 <__do_global_dtors_aux>:
 8000198:	b510      	push	{r4, lr}
 800019a:	4c05      	ldr	r4, [pc, #20]	; (80001b0 <__do_global_dtors_aux+0x18>)
 800019c:	7823      	ldrb	r3, [r4, #0]
 800019e:	b933      	cbnz	r3, 80001ae <__do_global_dtors_aux+0x16>
 80001a0:	4b04      	ldr	r3, [pc, #16]	; (80001b4 <__do_global_dtors_aux+0x1c>)
 80001a2:	b113      	cbz	r3, 80001aa <__do_global_dtors_aux+0x12>
 80001a4:	4804      	ldr	r0, [pc, #16]	; (80001b8 <__do_global_dtors_aux+0x20>)
 80001a6:	f3af 8000 	nop.w
 80001aa:	2301      	movs	r3, #1
 80001ac:	7023      	strb	r3, [r4, #0]
 80001ae:	bd10      	pop	{r4, pc}
 80001b0:	200001dc 	.word	0x200001dc
 80001b4:	00000000 	.word	0x00000000
 80001b8:	08004ba4 	.word	0x08004ba4

080001bc <frame_dummy>:
 80001bc:	b508      	push	{r3, lr}
 80001be:	4b03      	ldr	r3, [pc, #12]	; (80001cc <frame_dummy+0x10>)
 80001c0:	b11b      	cbz	r3, 80001ca <frame_dummy+0xe>
 80001c2:	4903      	ldr	r1, [pc, #12]	; (80001d0 <frame_dummy+0x14>)
 80001c4:	4803      	ldr	r0, [pc, #12]	; (80001d4 <frame_dummy+0x18>)
 80001c6:	f3af 8000 	nop.w
 80001ca:	bd08      	pop	{r3, pc}
 80001cc:	00000000 	.word	0x00000000
 80001d0:	200001e0 	.word	0x200001e0
 80001d4:	08004ba4 	.word	0x08004ba4

080001d8 <strlen>:
 80001d8:	4603      	mov	r3, r0
 80001da:	f813 2b01 	ldrb.w	r2, [r3], #1
 80001de:	2a00      	cmp	r2, #0
 80001e0:	d1fb      	bne.n	80001da <strlen+0x2>
 80001e2:	1a18      	subs	r0, r3, r0
 80001e4:	3801      	subs	r0, #1
 80001e6:	4770      	bx	lr

080001e8 <__aeabi_drsub>:
 80001e8:	f081 4100 	eor.w	r1, r1, #2147483648	; 0x80000000
 80001ec:	e002      	b.n	80001f4 <__adddf3>
 80001ee:	bf00      	nop

080001f0 <__aeabi_dsub>:
 80001f0:	f083 4300 	eor.w	r3, r3, #2147483648	; 0x80000000

080001f4 <__adddf3>:
 80001f4:	b530      	push	{r4, r5, lr}
 80001f6:	ea4f 0441 	mov.w	r4, r1, lsl #1
 80001fa:	ea4f 0543 	mov.w	r5, r3, lsl #1
 80001fe:	ea94 0f05 	teq	r4, r5
 8000202:	bf08      	it	eq
 8000204:	ea90 0f02 	teqeq	r0, r2
 8000208:	bf1f      	itttt	ne
 800020a:	ea54 0c00 	orrsne.w	ip, r4, r0
 800020e:	ea55 0c02 	orrsne.w	ip, r5, r2
 8000212:	ea7f 5c64 	mvnsne.w	ip, r4, asr #21
 8000216:	ea7f 5c65 	mvnsne.w	ip, r5, asr #21
 800021a:	f000 80e2 	beq.w	80003e2 <__adddf3+0x1ee>
 800021e:	ea4f 5454 	mov.w	r4, r4, lsr #21
 8000222:	ebd4 5555 	rsbs	r5, r4, r5, lsr #21
 8000226:	bfb8      	it	lt
 8000228:	426d      	neglt	r5, r5
 800022a:	dd0c      	ble.n	8000246 <__adddf3+0x52>
 800022c:	442c      	add	r4, r5
 800022e:	ea80 0202 	eor.w	r2, r0, r2
 8000232:	ea81 0303 	eor.w	r3, r1, r3
 8000236:	ea82 0000 	eor.w	r0, r2, r0
 800023a:	ea83 0101 	eor.w	r1, r3, r1
 800023e:	ea80 0202 	eor.w	r2, r0, r2
 8000242:	ea81 0303 	eor.w	r3, r1, r3
 8000246:	2d36      	cmp	r5, #54	; 0x36
 8000248:	bf88      	it	hi
 800024a:	bd30      	pophi	{r4, r5, pc}
 800024c:	f011 4f00 	tst.w	r1, #2147483648	; 0x80000000
 8000250:	ea4f 3101 	mov.w	r1, r1, lsl #12
 8000254:	f44f 1c80 	mov.w	ip, #1048576	; 0x100000
 8000258:	ea4c 3111 	orr.w	r1, ip, r1, lsr #12
 800025c:	d002      	beq.n	8000264 <__adddf3+0x70>
 800025e:	4240      	negs	r0, r0
 8000260:	eb61 0141 	sbc.w	r1, r1, r1, lsl #1
 8000264:	f013 4f00 	tst.w	r3, #2147483648	; 0x80000000
 8000268:	ea4f 3303 	mov.w	r3, r3, lsl #12
 800026c:	ea4c 3313 	orr.w	r3, ip, r3, lsr #12
 8000270:	d002      	beq.n	8000278 <__adddf3+0x84>
 8000272:	4252      	negs	r2, r2
 8000274:	eb63 0343 	sbc.w	r3, r3, r3, lsl #1
 8000278:	ea94 0f05 	teq	r4, r5
 800027c:	f000 80a7 	beq.w	80003ce <__adddf3+0x1da>
 8000280:	f1a4 0401 	sub.w	r4, r4, #1
 8000284:	f1d5 0e20 	rsbs	lr, r5, #32
 8000288:	db0d      	blt.n	80002a6 <__adddf3+0xb2>
 800028a:	fa02 fc0e 	lsl.w	ip, r2, lr
 800028e:	fa22 f205 	lsr.w	r2, r2, r5
 8000292:	1880      	adds	r0, r0, r2
 8000294:	f141 0100 	adc.w	r1, r1, #0
 8000298:	fa03 f20e 	lsl.w	r2, r3, lr
 800029c:	1880      	adds	r0, r0, r2
 800029e:	fa43 f305 	asr.w	r3, r3, r5
 80002a2:	4159      	adcs	r1, r3
 80002a4:	e00e      	b.n	80002c4 <__adddf3+0xd0>
 80002a6:	f1a5 0520 	sub.w	r5, r5, #32
 80002aa:	f10e 0e20 	add.w	lr, lr, #32
 80002ae:	2a01      	cmp	r2, #1
 80002b0:	fa03 fc0e 	lsl.w	ip, r3, lr
 80002b4:	bf28      	it	cs
 80002b6:	f04c 0c02 	orrcs.w	ip, ip, #2
 80002ba:	fa43 f305 	asr.w	r3, r3, r5
 80002be:	18c0      	adds	r0, r0, r3
 80002c0:	eb51 71e3 	adcs.w	r1, r1, r3, asr #31
 80002c4:	f001 4500 	and.w	r5, r1, #2147483648	; 0x80000000
 80002c8:	d507      	bpl.n	80002da <__adddf3+0xe6>
 80002ca:	f04f 0e00 	mov.w	lr, #0
 80002ce:	f1dc 0c00 	rsbs	ip, ip, #0
 80002d2:	eb7e 0000 	sbcs.w	r0, lr, r0
 80002d6:	eb6e 0101 	sbc.w	r1, lr, r1
 80002da:	f5b1 1f80 	cmp.w	r1, #1048576	; 0x100000
 80002de:	d31b      	bcc.n	8000318 <__adddf3+0x124>
 80002e0:	f5b1 1f00 	cmp.w	r1, #2097152	; 0x200000
 80002e4:	d30c      	bcc.n	8000300 <__adddf3+0x10c>
 80002e6:	0849      	lsrs	r1, r1, #1
 80002e8:	ea5f 0030 	movs.w	r0, r0, rrx
 80002ec:	ea4f 0c3c 	mov.w	ip, ip, rrx
 80002f0:	f104 0401 	add.w	r4, r4, #1
 80002f4:	ea4f 5244 	mov.w	r2, r4, lsl #21
 80002f8:	f512 0f80 	cmn.w	r2, #4194304	; 0x400000
 80002fc:	f080 809a 	bcs.w	8000434 <__adddf3+0x240>
 8000300:	f1bc 4f00 	cmp.w	ip, #2147483648	; 0x80000000
 8000304:	bf08      	it	eq
 8000306:	ea5f 0c50 	movseq.w	ip, r0, lsr #1
 800030a:	f150 0000 	adcs.w	r0, r0, #0
 800030e:	eb41 5104 	adc.w	r1, r1, r4, lsl #20
 8000312:	ea41 0105 	orr.w	r1, r1, r5
 8000316:	bd30      	pop	{r4, r5, pc}
 8000318:	ea5f 0c4c 	movs.w	ip, ip, lsl #1
 800031c:	4140      	adcs	r0, r0
 800031e:	eb41 0101 	adc.w	r1, r1, r1
 8000322:	f411 1f80 	tst.w	r1, #1048576	; 0x100000
 8000326:	f1a4 0401 	sub.w	r4, r4, #1
 800032a:	d1e9      	bne.n	8000300 <__adddf3+0x10c>
 800032c:	f091 0f00 	teq	r1, #0
 8000330:	bf04      	itt	eq
 8000332:	4601      	moveq	r1, r0
 8000334:	2000      	moveq	r0, #0
 8000336:	fab1 f381 	clz	r3, r1
 800033a:	bf08      	it	eq
 800033c:	3320      	addeq	r3, #32
 800033e:	f1a3 030b 	sub.w	r3, r3, #11
 8000342:	f1b3 0220 	subs.w	r2, r3, #32
 8000346:	da0c      	bge.n	8000362 <__adddf3+0x16e>
 8000348:	320c      	adds	r2, #12
 800034a:	dd08      	ble.n	800035e <__adddf3+0x16a>
 800034c:	f102 0c14 	add.w	ip, r2, #20
 8000350:	f1c2 020c 	rsb	r2, r2, #12
 8000354:	fa01 f00c 	lsl.w	r0, r1, ip
 8000358:	fa21 f102 	lsr.w	r1, r1, r2
 800035c:	e00c      	b.n	8000378 <__adddf3+0x184>
 800035e:	f102 0214 	add.w	r2, r2, #20
 8000362:	bfd8      	it	le
 8000364:	f1c2 0c20 	rsble	ip, r2, #32
 8000368:	fa01 f102 	lsl.w	r1, r1, r2
 800036c:	fa20 fc0c 	lsr.w	ip, r0, ip
 8000370:	bfdc      	itt	le
 8000372:	ea41 010c 	orrle.w	r1, r1, ip
 8000376:	4090      	lslle	r0, r2
 8000378:	1ae4      	subs	r4, r4, r3
 800037a:	bfa2      	ittt	ge
 800037c:	eb01 5104 	addge.w	r1, r1, r4, lsl #20
 8000380:	4329      	orrge	r1, r5
 8000382:	bd30      	popge	{r4, r5, pc}
 8000384:	ea6f 0404 	mvn.w	r4, r4
 8000388:	3c1f      	subs	r4, #31
 800038a:	da1c      	bge.n	80003c6 <__adddf3+0x1d2>
 800038c:	340c      	adds	r4, #12
 800038e:	dc0e      	bgt.n	80003ae <__adddf3+0x1ba>
 8000390:	f104 0414 	add.w	r4, r4, #20
 8000394:	f1c4 0220 	rsb	r2, r4, #32
 8000398:	fa20 f004 	lsr.w	r0, r0, r4
 800039c:	fa01 f302 	lsl.w	r3, r1, r2
 80003a0:	ea40 0003 	orr.w	r0, r0, r3
 80003a4:	fa21 f304 	lsr.w	r3, r1, r4
 80003a8:	ea45 0103 	orr.w	r1, r5, r3
 80003ac:	bd30      	pop	{r4, r5, pc}
 80003ae:	f1c4 040c 	rsb	r4, r4, #12
 80003b2:	f1c4 0220 	rsb	r2, r4, #32
 80003b6:	fa20 f002 	lsr.w	r0, r0, r2
 80003ba:	fa01 f304 	lsl.w	r3, r1, r4
 80003be:	ea40 0003 	orr.w	r0, r0, r3
 80003c2:	4629      	mov	r1, r5
 80003c4:	bd30      	pop	{r4, r5, pc}
 80003c6:	fa21 f004 	lsr.w	r0, r1, r4
 80003ca:	4629      	mov	r1, r5
 80003cc:	bd30      	pop	{r4, r5, pc}
 80003ce:	f094 0f00 	teq	r4, #0
 80003d2:	f483 1380 	eor.w	r3, r3, #1048576	; 0x100000
 80003d6:	bf06      	itte	eq
 80003d8:	f481 1180 	eoreq.w	r1, r1, #1048576	; 0x100000
 80003dc:	3401      	addeq	r4, #1
 80003de:	3d01      	subne	r5, #1
 80003e0:	e74e      	b.n	8000280 <__adddf3+0x8c>
 80003e2:	ea7f 5c64 	mvns.w	ip, r4, asr #21
 80003e6:	bf18      	it	ne
 80003e8:	ea7f 5c65 	mvnsne.w	ip, r5, asr #21
 80003ec:	d029      	beq.n	8000442 <__adddf3+0x24e>
 80003ee:	ea94 0f05 	teq	r4, r5
 80003f2:	bf08      	it	eq
 80003f4:	ea90 0f02 	teqeq	r0, r2
 80003f8:	d005      	beq.n	8000406 <__adddf3+0x212>
 80003fa:	ea54 0c00 	orrs.w	ip, r4, r0
 80003fe:	bf04      	itt	eq
 8000400:	4619      	moveq	r1, r3
 8000402:	4610      	moveq	r0, r2
 8000404:	bd30      	pop	{r4, r5, pc}
 8000406:	ea91 0f03 	teq	r1, r3
 800040a:	bf1e      	ittt	ne
 800040c:	2100      	movne	r1, #0
 800040e:	2000      	movne	r0, #0
 8000410:	bd30      	popne	{r4, r5, pc}
 8000412:	ea5f 5c54 	movs.w	ip, r4, lsr #21
 8000416:	d105      	bne.n	8000424 <__adddf3+0x230>
 8000418:	0040      	lsls	r0, r0, #1
 800041a:	4149      	adcs	r1, r1
 800041c:	bf28      	it	cs
 800041e:	f041 4100 	orrcs.w	r1, r1, #2147483648	; 0x80000000
 8000422:	bd30      	pop	{r4, r5, pc}
 8000424:	f514 0480 	adds.w	r4, r4, #4194304	; 0x400000
 8000428:	bf3c      	itt	cc
 800042a:	f501 1180 	addcc.w	r1, r1, #1048576	; 0x100000
 800042e:	bd30      	popcc	{r4, r5, pc}
 8000430:	f001 4500 	and.w	r5, r1, #2147483648	; 0x80000000
 8000434:	f045 41fe 	orr.w	r1, r5, #2130706432	; 0x7f000000
 8000438:	f441 0170 	orr.w	r1, r1, #15728640	; 0xf00000
 800043c:	f04f 0000 	mov.w	r0, #0
 8000440:	bd30      	pop	{r4, r5, pc}
 8000442:	ea7f 5c64 	mvns.w	ip, r4, asr #21
 8000446:	bf1a      	itte	ne
 8000448:	4619      	movne	r1, r3
 800044a:	4610      	movne	r0, r2
 800044c:	ea7f 5c65 	mvnseq.w	ip, r5, asr #21
 8000450:	bf1c      	itt	ne
 8000452:	460b      	movne	r3, r1
 8000454:	4602      	movne	r2, r0
 8000456:	ea50 3401 	orrs.w	r4, r0, r1, lsl #12
 800045a:	bf06      	itte	eq
 800045c:	ea52 3503 	orrseq.w	r5, r2, r3, lsl #12
 8000460:	ea91 0f03 	teqeq	r1, r3
 8000464:	f441 2100 	orrne.w	r1, r1, #524288	; 0x80000
 8000468:	bd30      	pop	{r4, r5, pc}
 800046a:	bf00      	nop

0800046c <__aeabi_ui2d>:
 800046c:	f090 0f00 	teq	r0, #0
 8000470:	bf04      	itt	eq
 8000472:	2100      	moveq	r1, #0
 8000474:	4770      	bxeq	lr
 8000476:	b530      	push	{r4, r5, lr}
 8000478:	f44f 6480 	mov.w	r4, #1024	; 0x400
 800047c:	f104 0432 	add.w	r4, r4, #50	; 0x32
 8000480:	f04f 0500 	mov.w	r5, #0
 8000484:	f04f 0100 	mov.w	r1, #0
 8000488:	e750      	b.n	800032c <__adddf3+0x138>
 800048a:	bf00      	nop

0800048c <__aeabi_i2d>:
 800048c:	f090 0f00 	teq	r0, #0
 8000490:	bf04      	itt	eq
 8000492:	2100      	moveq	r1, #0
 8000494:	4770      	bxeq	lr
 8000496:	b530      	push	{r4, r5, lr}
 8000498:	f44f 6480 	mov.w	r4, #1024	; 0x400
 800049c:	f104 0432 	add.w	r4, r4, #50	; 0x32
 80004a0:	f010 4500 	ands.w	r5, r0, #2147483648	; 0x80000000
 80004a4:	bf48      	it	mi
 80004a6:	4240      	negmi	r0, r0
 80004a8:	f04f 0100 	mov.w	r1, #0
 80004ac:	e73e      	b.n	800032c <__adddf3+0x138>
 80004ae:	bf00      	nop

080004b0 <__aeabi_f2d>:
 80004b0:	0042      	lsls	r2, r0, #1
 80004b2:	ea4f 01e2 	mov.w	r1, r2, asr #3
 80004b6:	ea4f 0131 	mov.w	r1, r1, rrx
 80004ba:	ea4f 7002 	mov.w	r0, r2, lsl #28
 80004be:	bf1f      	itttt	ne
 80004c0:	f012 437f 	andsne.w	r3, r2, #4278190080	; 0xff000000
 80004c4:	f093 4f7f 	teqne	r3, #4278190080	; 0xff000000
 80004c8:	f081 5160 	eorne.w	r1, r1, #939524096	; 0x38000000
 80004cc:	4770      	bxne	lr
 80004ce:	f032 427f 	bics.w	r2, r2, #4278190080	; 0xff000000
 80004d2:	bf08      	it	eq
 80004d4:	4770      	bxeq	lr
 80004d6:	f093 4f7f 	teq	r3, #4278190080	; 0xff000000
 80004da:	bf04      	itt	eq
 80004dc:	f441 2100 	orreq.w	r1, r1, #524288	; 0x80000
 80004e0:	4770      	bxeq	lr
 80004e2:	b530      	push	{r4, r5, lr}
 80004e4:	f44f 7460 	mov.w	r4, #896	; 0x380
 80004e8:	f001 4500 	and.w	r5, r1, #2147483648	; 0x80000000
 80004ec:	f021 4100 	bic.w	r1, r1, #2147483648	; 0x80000000
 80004f0:	e71c      	b.n	800032c <__adddf3+0x138>
 80004f2:	bf00      	nop

080004f4 <__aeabi_ul2d>:
 80004f4:	ea50 0201 	orrs.w	r2, r0, r1
 80004f8:	bf08      	it	eq
 80004fa:	4770      	bxeq	lr
 80004fc:	b530      	push	{r4, r5, lr}
 80004fe:	f04f 0500 	mov.w	r5, #0
 8000502:	e00a      	b.n	800051a <__aeabi_l2d+0x16>

08000504 <__aeabi_l2d>:
 8000504:	ea50 0201 	orrs.w	r2, r0, r1
 8000508:	bf08      	it	eq
 800050a:	4770      	bxeq	lr
 800050c:	b530      	push	{r4, r5, lr}
 800050e:	f011 4500 	ands.w	r5, r1, #2147483648	; 0x80000000
 8000512:	d502      	bpl.n	800051a <__aeabi_l2d+0x16>
 8000514:	4240      	negs	r0, r0
 8000516:	eb61 0141 	sbc.w	r1, r1, r1, lsl #1
 800051a:	f44f 6480 	mov.w	r4, #1024	; 0x400
 800051e:	f104 0432 	add.w	r4, r4, #50	; 0x32
 8000522:	ea5f 5c91 	movs.w	ip, r1, lsr #22
 8000526:	f43f aed8 	beq.w	80002da <__adddf3+0xe6>
 800052a:	f04f 0203 	mov.w	r2, #3
 800052e:	ea5f 0cdc 	movs.w	ip, ip, lsr #3
 8000532:	bf18      	it	ne
 8000534:	3203      	addne	r2, #3
 8000536:	ea5f 0cdc 	movs.w	ip, ip, lsr #3
 800053a:	bf18      	it	ne
 800053c:	3203      	addne	r2, #3
 800053e:	eb02 02dc 	add.w	r2, r2, ip, lsr #3
 8000542:	f1c2 0320 	rsb	r3, r2, #32
 8000546:	fa00 fc03 	lsl.w	ip, r0, r3
 800054a:	fa20 f002 	lsr.w	r0, r0, r2
 800054e:	fa01 fe03 	lsl.w	lr, r1, r3
 8000552:	ea40 000e 	orr.w	r0, r0, lr
 8000556:	fa21 f102 	lsr.w	r1, r1, r2
 800055a:	4414      	add	r4, r2
 800055c:	e6bd      	b.n	80002da <__adddf3+0xe6>
 800055e:	bf00      	nop

08000560 <__aeabi_dmul>:
 8000560:	b570      	push	{r4, r5, r6, lr}
 8000562:	f04f 0cff 	mov.w	ip, #255	; 0xff
 8000566:	f44c 6ce0 	orr.w	ip, ip, #1792	; 0x700
 800056a:	ea1c 5411 	ands.w	r4, ip, r1, lsr #20
 800056e:	bf1d      	ittte	ne
 8000570:	ea1c 5513 	andsne.w	r5, ip, r3, lsr #20
 8000574:	ea94 0f0c 	teqne	r4, ip
 8000578:	ea95 0f0c 	teqne	r5, ip
 800057c:	f000 f8de 	bleq	800073c <__aeabi_dmul+0x1dc>
 8000580:	442c      	add	r4, r5
 8000582:	ea81 0603 	eor.w	r6, r1, r3
 8000586:	ea21 514c 	bic.w	r1, r1, ip, lsl #21
 800058a:	ea23 534c 	bic.w	r3, r3, ip, lsl #21
 800058e:	ea50 3501 	orrs.w	r5, r0, r1, lsl #12
 8000592:	bf18      	it	ne
 8000594:	ea52 3503 	orrsne.w	r5, r2, r3, lsl #12
 8000598:	f441 1180 	orr.w	r1, r1, #1048576	; 0x100000
 800059c:	f443 1380 	orr.w	r3, r3, #1048576	; 0x100000
 80005a0:	d038      	beq.n	8000614 <__aeabi_dmul+0xb4>
 80005a2:	fba0 ce02 	umull	ip, lr, r0, r2
 80005a6:	f04f 0500 	mov.w	r5, #0
 80005aa:	fbe1 e502 	umlal	lr, r5, r1, r2
 80005ae:	f006 4200 	and.w	r2, r6, #2147483648	; 0x80000000
 80005b2:	fbe0 e503 	umlal	lr, r5, r0, r3
 80005b6:	f04f 0600 	mov.w	r6, #0
 80005ba:	fbe1 5603 	umlal	r5, r6, r1, r3
 80005be:	f09c 0f00 	teq	ip, #0
 80005c2:	bf18      	it	ne
 80005c4:	f04e 0e01 	orrne.w	lr, lr, #1
 80005c8:	f1a4 04ff 	sub.w	r4, r4, #255	; 0xff
 80005cc:	f5b6 7f00 	cmp.w	r6, #512	; 0x200
 80005d0:	f564 7440 	sbc.w	r4, r4, #768	; 0x300
 80005d4:	d204      	bcs.n	80005e0 <__aeabi_dmul+0x80>
 80005d6:	ea5f 0e4e 	movs.w	lr, lr, lsl #1
 80005da:	416d      	adcs	r5, r5
 80005dc:	eb46 0606 	adc.w	r6, r6, r6
 80005e0:	ea42 21c6 	orr.w	r1, r2, r6, lsl #11
 80005e4:	ea41 5155 	orr.w	r1, r1, r5, lsr #21
 80005e8:	ea4f 20c5 	mov.w	r0, r5, lsl #11
 80005ec:	ea40 505e 	orr.w	r0, r0, lr, lsr #21
 80005f0:	ea4f 2ece 	mov.w	lr, lr, lsl #11
 80005f4:	f1b4 0cfd 	subs.w	ip, r4, #253	; 0xfd
 80005f8:	bf88      	it	hi
 80005fa:	f5bc 6fe0 	cmphi.w	ip, #1792	; 0x700
 80005fe:	d81e      	bhi.n	800063e <__aeabi_dmul+0xde>
 8000600:	f1be 4f00 	cmp.w	lr, #2147483648	; 0x80000000
 8000604:	bf08      	it	eq
 8000606:	ea5f 0e50 	movseq.w	lr, r0, lsr #1
 800060a:	f150 0000 	adcs.w	r0, r0, #0
 800060e:	eb41 5104 	adc.w	r1, r1, r4, lsl #20
 8000612:	bd70      	pop	{r4, r5, r6, pc}
 8000614:	f006 4600 	and.w	r6, r6, #2147483648	; 0x80000000
 8000618:	ea46 0101 	orr.w	r1, r6, r1
 800061c:	ea40 0002 	orr.w	r0, r0, r2
 8000620:	ea81 0103 	eor.w	r1, r1, r3
 8000624:	ebb4 045c 	subs.w	r4, r4, ip, lsr #1
 8000628:	bfc2      	ittt	gt
 800062a:	ebd4 050c 	rsbsgt	r5, r4, ip
 800062e:	ea41 5104 	orrgt.w	r1, r1, r4, lsl #20
 8000632:	bd70      	popgt	{r4, r5, r6, pc}
 8000634:	f441 1180 	orr.w	r1, r1, #1048576	; 0x100000
 8000638:	f04f 0e00 	mov.w	lr, #0
 800063c:	3c01      	subs	r4, #1
 800063e:	f300 80ab 	bgt.w	8000798 <__aeabi_dmul+0x238>
 8000642:	f114 0f36 	cmn.w	r4, #54	; 0x36
 8000646:	bfde      	ittt	le
 8000648:	2000      	movle	r0, #0
 800064a:	f001 4100 	andle.w	r1, r1, #2147483648	; 0x80000000
 800064e:	bd70      	pople	{r4, r5, r6, pc}
 8000650:	f1c4 0400 	rsb	r4, r4, #0
 8000654:	3c20      	subs	r4, #32
 8000656:	da35      	bge.n	80006c4 <__aeabi_dmul+0x164>
 8000658:	340c      	adds	r4, #12
 800065a:	dc1b      	bgt.n	8000694 <__aeabi_dmul+0x134>
 800065c:	f104 0414 	add.w	r4, r4, #20
 8000660:	f1c4 0520 	rsb	r5, r4, #32
 8000664:	fa00 f305 	lsl.w	r3, r0, r5
 8000668:	fa20 f004 	lsr.w	r0, r0, r4
 800066c:	fa01 f205 	lsl.w	r2, r1, r5
 8000670:	ea40 0002 	orr.w	r0, r0, r2
 8000674:	f001 4200 	and.w	r2, r1, #2147483648	; 0x80000000
 8000678:	f021 4100 	bic.w	r1, r1, #2147483648	; 0x80000000
 800067c:	eb10 70d3 	adds.w	r0, r0, r3, lsr #31
 8000680:	fa21 f604 	lsr.w	r6, r1, r4
 8000684:	eb42 0106 	adc.w	r1, r2, r6
 8000688:	ea5e 0e43 	orrs.w	lr, lr, r3, lsl #1
 800068c:	bf08      	it	eq
 800068e:	ea20 70d3 	biceq.w	r0, r0, r3, lsr #31
 8000692:	bd70      	pop	{r4, r5, r6, pc}
 8000694:	f1c4 040c 	rsb	r4, r4, #12
 8000698:	f1c4 0520 	rsb	r5, r4, #32
 800069c:	fa00 f304 	lsl.w	r3, r0, r4
 80006a0:	fa20 f005 	lsr.w	r0, r0, r5
 80006a4:	fa01 f204 	lsl.w	r2, r1, r4
 80006a8:	ea40 0002 	orr.w	r0, r0, r2
 80006ac:	f001 4100 	and.w	r1, r1, #2147483648	; 0x80000000
 80006b0:	eb10 70d3 	adds.w	r0, r0, r3, lsr #31
 80006b4:	f141 0100 	adc.w	r1, r1, #0
 80006b8:	ea5e 0e43 	orrs.w	lr, lr, r3, lsl #1
 80006bc:	bf08      	it	eq
 80006be:	ea20 70d3 	biceq.w	r0, r0, r3, lsr #31
 80006c2:	bd70      	pop	{r4, r5, r6, pc}
 80006c4:	f1c4 0520 	rsb	r5, r4, #32
 80006c8:	fa00 f205 	lsl.w	r2, r0, r5
 80006cc:	ea4e 0e02 	orr.w	lr, lr, r2
 80006d0:	fa20 f304 	lsr.w	r3, r0, r4
 80006d4:	fa01 f205 	lsl.w	r2, r1, r5
 80006d8:	ea43 0302 	orr.w	r3, r3, r2
 80006dc:	fa21 f004 	lsr.w	r0, r1, r4
 80006e0:	f001 4100 	and.w	r1, r1, #2147483648	; 0x80000000
 80006e4:	fa21 f204 	lsr.w	r2, r1, r4
 80006e8:	ea20 0002 	bic.w	r0, r0, r2
 80006ec:	eb00 70d3 	add.w	r0, r0, r3, lsr #31
 80006f0:	ea5e 0e43 	orrs.w	lr, lr, r3, lsl #1
 80006f4:	bf08      	it	eq
 80006f6:	ea20 70d3 	biceq.w	r0, r0, r3, lsr #31
 80006fa:	bd70      	pop	{r4, r5, r6, pc}
 80006fc:	f094 0f00 	teq	r4, #0
 8000700:	d10f      	bne.n	8000722 <__aeabi_dmul+0x1c2>
 8000702:	f001 4600 	and.w	r6, r1, #2147483648	; 0x80000000
 8000706:	0040      	lsls	r0, r0, #1
 8000708:	eb41 0101 	adc.w	r1, r1, r1
 800070c:	f411 1f80 	tst.w	r1, #1048576	; 0x100000
 8000710:	bf08      	it	eq
 8000712:	3c01      	subeq	r4, #1
 8000714:	d0f7      	beq.n	8000706 <__aeabi_dmul+0x1a6>
 8000716:	ea41 0106 	orr.w	r1, r1, r6
 800071a:	f095 0f00 	teq	r5, #0
 800071e:	bf18      	it	ne
 8000720:	4770      	bxne	lr
 8000722:	f003 4600 	and.w	r6, r3, #2147483648	; 0x80000000
 8000726:	0052      	lsls	r2, r2, #1
 8000728:	eb43 0303 	adc.w	r3, r3, r3
 800072c:	f413 1f80 	tst.w	r3, #1048576	; 0x100000
 8000730:	bf08      	it	eq
 8000732:	3d01      	subeq	r5, #1
 8000734:	d0f7      	beq.n	8000726 <__aeabi_dmul+0x1c6>
 8000736:	ea43 0306 	orr.w	r3, r3, r6
 800073a:	4770      	bx	lr
 800073c:	ea94 0f0c 	teq	r4, ip
 8000740:	ea0c 5513 	and.w	r5, ip, r3, lsr #20
 8000744:	bf18      	it	ne
 8000746:	ea95 0f0c 	teqne	r5, ip
 800074a:	d00c      	beq.n	8000766 <__aeabi_dmul+0x206>
 800074c:	ea50 0641 	orrs.w	r6, r0, r1, lsl #1
 8000750:	bf18      	it	ne
 8000752:	ea52 0643 	orrsne.w	r6, r2, r3, lsl #1
 8000756:	d1d1      	bne.n	80006fc <__aeabi_dmul+0x19c>
 8000758:	ea81 0103 	eor.w	r1, r1, r3
 800075c:	f001 4100 	and.w	r1, r1, #2147483648	; 0x80000000
 8000760:	f04f 0000 	mov.w	r0, #0
 8000764:	bd70      	pop	{r4, r5, r6, pc}
 8000766:	ea50 0641 	orrs.w	r6, r0, r1, lsl #1
 800076a:	bf06      	itte	eq
 800076c:	4610      	moveq	r0, r2
 800076e:	4619      	moveq	r1, r3
 8000770:	ea52 0643 	orrsne.w	r6, r2, r3, lsl #1
 8000774:	d019      	beq.n	80007aa <__aeabi_dmul+0x24a>
 8000776:	ea94 0f0c 	teq	r4, ip
 800077a:	d102      	bne.n	8000782 <__aeabi_dmul+0x222>
 800077c:	ea50 3601 	orrs.w	r6, r0, r1, lsl #12
 8000780:	d113      	bne.n	80007aa <__aeabi_dmul+0x24a>
 8000782:	ea95 0f0c 	teq	r5, ip
 8000786:	d105      	bne.n	8000794 <__aeabi_dmul+0x234>
 8000788:	ea52 3603 	orrs.w	r6, r2, r3, lsl #12
 800078c:	bf1c      	itt	ne
 800078e:	4610      	movne	r0, r2
 8000790:	4619      	movne	r1, r3
 8000792:	d10a      	bne.n	80007aa <__aeabi_dmul+0x24a>
 8000794:	ea81 0103 	eor.w	r1, r1, r3
 8000798:	f001 4100 	and.w	r1, r1, #2147483648	; 0x80000000
 800079c:	f041 41fe 	orr.w	r1, r1, #2130706432	; 0x7f000000
 80007a0:	f441 0170 	orr.w	r1, r1, #15728640	; 0xf00000
 80007a4:	f04f 0000 	mov.w	r0, #0
 80007a8:	bd70      	pop	{r4, r5, r6, pc}
 80007aa:	f041 41fe 	orr.w	r1, r1, #2130706432	; 0x7f000000
 80007ae:	f441 0178 	orr.w	r1, r1, #16252928	; 0xf80000
 80007b2:	bd70      	pop	{r4, r5, r6, pc}

080007b4 <__aeabi_ddiv>:
 80007b4:	b570      	push	{r4, r5, r6, lr}
 80007b6:	f04f 0cff 	mov.w	ip, #255	; 0xff
 80007ba:	f44c 6ce0 	orr.w	ip, ip, #1792	; 0x700
 80007be:	ea1c 5411 	ands.w	r4, ip, r1, lsr #20
 80007c2:	bf1d      	ittte	ne
 80007c4:	ea1c 5513 	andsne.w	r5, ip, r3, lsr #20
 80007c8:	ea94 0f0c 	teqne	r4, ip
 80007cc:	ea95 0f0c 	teqne	r5, ip
 80007d0:	f000 f8a7 	bleq	8000922 <__aeabi_ddiv+0x16e>
 80007d4:	eba4 0405 	sub.w	r4, r4, r5
 80007d8:	ea81 0e03 	eor.w	lr, r1, r3
 80007dc:	ea52 3503 	orrs.w	r5, r2, r3, lsl #12
 80007e0:	ea4f 3101 	mov.w	r1, r1, lsl #12
 80007e4:	f000 8088 	beq.w	80008f8 <__aeabi_ddiv+0x144>
 80007e8:	ea4f 3303 	mov.w	r3, r3, lsl #12
 80007ec:	f04f 5580 	mov.w	r5, #268435456	; 0x10000000
 80007f0:	ea45 1313 	orr.w	r3, r5, r3, lsr #4
 80007f4:	ea43 6312 	orr.w	r3, r3, r2, lsr #24
 80007f8:	ea4f 2202 	mov.w	r2, r2, lsl #8
 80007fc:	ea45 1511 	orr.w	r5, r5, r1, lsr #4
 8000800:	ea45 6510 	orr.w	r5, r5, r0, lsr #24
 8000804:	ea4f 2600 	mov.w	r6, r0, lsl #8
 8000808:	f00e 4100 	and.w	r1, lr, #2147483648	; 0x80000000
 800080c:	429d      	cmp	r5, r3
 800080e:	bf08      	it	eq
 8000810:	4296      	cmpeq	r6, r2
 8000812:	f144 04fd 	adc.w	r4, r4, #253	; 0xfd
 8000816:	f504 7440 	add.w	r4, r4, #768	; 0x300
 800081a:	d202      	bcs.n	8000822 <__aeabi_ddiv+0x6e>
 800081c:	085b      	lsrs	r3, r3, #1
 800081e:	ea4f 0232 	mov.w	r2, r2, rrx
 8000822:	1ab6      	subs	r6, r6, r2
 8000824:	eb65 0503 	sbc.w	r5, r5, r3
 8000828:	085b      	lsrs	r3, r3, #1
 800082a:	ea4f 0232 	mov.w	r2, r2, rrx
 800082e:	f44f 1080 	mov.w	r0, #1048576	; 0x100000
 8000832:	f44f 2c00 	mov.w	ip, #524288	; 0x80000
 8000836:	ebb6 0e02 	subs.w	lr, r6, r2
 800083a:	eb75 0e03 	sbcs.w	lr, r5, r3
 800083e:	bf22      	ittt	cs
 8000840:	1ab6      	subcs	r6, r6, r2
 8000842:	4675      	movcs	r5, lr
 8000844:	ea40 000c 	orrcs.w	r0, r0, ip
 8000848:	085b      	lsrs	r3, r3, #1
 800084a:	ea4f 0232 	mov.w	r2, r2, rrx
 800084e:	ebb6 0e02 	subs.w	lr, r6, r2
 8000852:	eb75 0e03 	sbcs.w	lr, r5, r3
 8000856:	bf22      	ittt	cs
 8000858:	1ab6      	subcs	r6, r6, r2
 800085a:	4675      	movcs	r5, lr
 800085c:	ea40 005c 	orrcs.w	r0, r0, ip, lsr #1
 8000860:	085b      	lsrs	r3, r3, #1
 8000862:	ea4f 0232 	mov.w	r2, r2, rrx
 8000866:	ebb6 0e02 	subs.w	lr, r6, r2
 800086a:	eb75 0e03 	sbcs.w	lr, r5, r3
 800086e:	bf22      	ittt	cs
 8000870:	1ab6      	subcs	r6, r6, r2
 8000872:	4675      	movcs	r5, lr
 8000874:	ea40 009c 	orrcs.w	r0, r0, ip, lsr #2
 8000878:	085b      	lsrs	r3, r3, #1
 800087a:	ea4f 0232 	mov.w	r2, r2, rrx
 800087e:	ebb6 0e02 	subs.w	lr, r6, r2
 8000882:	eb75 0e03 	sbcs.w	lr, r5, r3
 8000886:	bf22      	ittt	cs
 8000888:	1ab6      	subcs	r6, r6, r2
 800088a:	4675      	movcs	r5, lr
 800088c:	ea40 00dc 	orrcs.w	r0, r0, ip, lsr #3
 8000890:	ea55 0e06 	orrs.w	lr, r5, r6
 8000894:	d018      	beq.n	80008c8 <__aeabi_ddiv+0x114>
 8000896:	ea4f 1505 	mov.w	r5, r5, lsl #4
 800089a:	ea45 7516 	orr.w	r5, r5, r6, lsr #28
 800089e:	ea4f 1606 	mov.w	r6, r6, lsl #4
 80008a2:	ea4f 03c3 	mov.w	r3, r3, lsl #3
 80008a6:	ea43 7352 	orr.w	r3, r3, r2, lsr #29
 80008aa:	ea4f 02c2 	mov.w	r2, r2, lsl #3
 80008ae:	ea5f 1c1c 	movs.w	ip, ip, lsr #4
 80008b2:	d1c0      	bne.n	8000836 <__aeabi_ddiv+0x82>
 80008b4:	f411 1f80 	tst.w	r1, #1048576	; 0x100000
 80008b8:	d10b      	bne.n	80008d2 <__aeabi_ddiv+0x11e>
 80008ba:	ea41 0100 	orr.w	r1, r1, r0
 80008be:	f04f 0000 	mov.w	r0, #0
 80008c2:	f04f 4c00 	mov.w	ip, #2147483648	; 0x80000000
 80008c6:	e7b6      	b.n	8000836 <__aeabi_ddiv+0x82>
 80008c8:	f411 1f80 	tst.w	r1, #1048576	; 0x100000
 80008cc:	bf04      	itt	eq
 80008ce:	4301      	orreq	r1, r0
 80008d0:	2000      	moveq	r0, #0
 80008d2:	f1b4 0cfd 	subs.w	ip, r4, #253	; 0xfd
 80008d6:	bf88      	it	hi
 80008d8:	f5bc 6fe0 	cmphi.w	ip, #1792	; 0x700
 80008dc:	f63f aeaf 	bhi.w	800063e <__aeabi_dmul+0xde>
 80008e0:	ebb5 0c03 	subs.w	ip, r5, r3
 80008e4:	bf04      	itt	eq
 80008e6:	ebb6 0c02 	subseq.w	ip, r6, r2
 80008ea:	ea5f 0c50 	movseq.w	ip, r0, lsr #1
 80008ee:	f150 0000 	adcs.w	r0, r0, #0
 80008f2:	eb41 5104 	adc.w	r1, r1, r4, lsl #20
 80008f6:	bd70      	pop	{r4, r5, r6, pc}
 80008f8:	f00e 4e00 	and.w	lr, lr, #2147483648	; 0x80000000
 80008fc:	ea4e 3111 	orr.w	r1, lr, r1, lsr #12
 8000900:	eb14 045c 	adds.w	r4, r4, ip, lsr #1
 8000904:	bfc2      	ittt	gt
 8000906:	ebd4 050c 	rsbsgt	r5, r4, ip
 800090a:	ea41 5104 	orrgt.w	r1, r1, r4, lsl #20
 800090e:	bd70      	popgt	{r4, r5, r6, pc}
 8000910:	f441 1180 	orr.w	r1, r1, #1048576	; 0x100000
 8000914:	f04f 0e00 	mov.w	lr, #0
 8000918:	3c01      	subs	r4, #1
 800091a:	e690      	b.n	800063e <__aeabi_dmul+0xde>
 800091c:	ea45 0e06 	orr.w	lr, r5, r6
 8000920:	e68d      	b.n	800063e <__aeabi_dmul+0xde>
 8000922:	ea0c 5513 	and.w	r5, ip, r3, lsr #20
 8000926:	ea94 0f0c 	teq	r4, ip
 800092a:	bf08      	it	eq
 800092c:	ea95 0f0c 	teqeq	r5, ip
 8000930:	f43f af3b 	beq.w	80007aa <__aeabi_dmul+0x24a>
 8000934:	ea94 0f0c 	teq	r4, ip
 8000938:	d10a      	bne.n	8000950 <__aeabi_ddiv+0x19c>
 800093a:	ea50 3401 	orrs.w	r4, r0, r1, lsl #12
 800093e:	f47f af34 	bne.w	80007aa <__aeabi_dmul+0x24a>
 8000942:	ea95 0f0c 	teq	r5, ip
 8000946:	f47f af25 	bne.w	8000794 <__aeabi_dmul+0x234>
 800094a:	4610      	mov	r0, r2
 800094c:	4619      	mov	r1, r3
 800094e:	e72c      	b.n	80007aa <__aeabi_dmul+0x24a>
 8000950:	ea95 0f0c 	teq	r5, ip
 8000954:	d106      	bne.n	8000964 <__aeabi_ddiv+0x1b0>
 8000956:	ea52 3503 	orrs.w	r5, r2, r3, lsl #12
 800095a:	f43f aefd 	beq.w	8000758 <__aeabi_dmul+0x1f8>
 800095e:	4610      	mov	r0, r2
 8000960:	4619      	mov	r1, r3
 8000962:	e722      	b.n	80007aa <__aeabi_dmul+0x24a>
 8000964:	ea50 0641 	orrs.w	r6, r0, r1, lsl #1
 8000968:	bf18      	it	ne
 800096a:	ea52 0643 	orrsne.w	r6, r2, r3, lsl #1
 800096e:	f47f aec5 	bne.w	80006fc <__aeabi_dmul+0x19c>
 8000972:	ea50 0441 	orrs.w	r4, r0, r1, lsl #1
 8000976:	f47f af0d 	bne.w	8000794 <__aeabi_dmul+0x234>
 800097a:	ea52 0543 	orrs.w	r5, r2, r3, lsl #1
 800097e:	f47f aeeb 	bne.w	8000758 <__aeabi_dmul+0x1f8>
 8000982:	e712      	b.n	80007aa <__aeabi_dmul+0x24a>

08000984 <__gedf2>:
 8000984:	f04f 3cff 	mov.w	ip, #4294967295
 8000988:	e006      	b.n	8000998 <__cmpdf2+0x4>
 800098a:	bf00      	nop

0800098c <__ledf2>:
 800098c:	f04f 0c01 	mov.w	ip, #1
 8000990:	e002      	b.n	8000998 <__cmpdf2+0x4>
 8000992:	bf00      	nop

08000994 <__cmpdf2>:
 8000994:	f04f 0c01 	mov.w	ip, #1
 8000998:	f84d cd04 	str.w	ip, [sp, #-4]!
 800099c:	ea4f 0c41 	mov.w	ip, r1, lsl #1
 80009a0:	ea7f 5c6c 	mvns.w	ip, ip, asr #21
 80009a4:	ea4f 0c43 	mov.w	ip, r3, lsl #1
 80009a8:	bf18      	it	ne
 80009aa:	ea7f 5c6c 	mvnsne.w	ip, ip, asr #21
 80009ae:	d01b      	beq.n	80009e8 <__cmpdf2+0x54>
 80009b0:	b001      	add	sp, #4
 80009b2:	ea50 0c41 	orrs.w	ip, r0, r1, lsl #1
 80009b6:	bf0c      	ite	eq
 80009b8:	ea52 0c43 	orrseq.w	ip, r2, r3, lsl #1
 80009bc:	ea91 0f03 	teqne	r1, r3
 80009c0:	bf02      	ittt	eq
 80009c2:	ea90 0f02 	teqeq	r0, r2
 80009c6:	2000      	moveq	r0, #0
 80009c8:	4770      	bxeq	lr
 80009ca:	f110 0f00 	cmn.w	r0, #0
 80009ce:	ea91 0f03 	teq	r1, r3
 80009d2:	bf58      	it	pl
 80009d4:	4299      	cmppl	r1, r3
 80009d6:	bf08      	it	eq
 80009d8:	4290      	cmpeq	r0, r2
 80009da:	bf2c      	ite	cs
 80009dc:	17d8      	asrcs	r0, r3, #31
 80009de:	ea6f 70e3 	mvncc.w	r0, r3, asr #31
 80009e2:	f040 0001 	orr.w	r0, r0, #1
 80009e6:	4770      	bx	lr
 80009e8:	ea4f 0c41 	mov.w	ip, r1, lsl #1
 80009ec:	ea7f 5c6c 	mvns.w	ip, ip, asr #21
 80009f0:	d102      	bne.n	80009f8 <__cmpdf2+0x64>
 80009f2:	ea50 3c01 	orrs.w	ip, r0, r1, lsl #12
 80009f6:	d107      	bne.n	8000a08 <__cmpdf2+0x74>
 80009f8:	ea4f 0c43 	mov.w	ip, r3, lsl #1
 80009fc:	ea7f 5c6c 	mvns.w	ip, ip, asr #21
 8000a00:	d1d6      	bne.n	80009b0 <__cmpdf2+0x1c>
 8000a02:	ea52 3c03 	orrs.w	ip, r2, r3, lsl #12
 8000a06:	d0d3      	beq.n	80009b0 <__cmpdf2+0x1c>
 8000a08:	f85d 0b04 	ldr.w	r0, [sp], #4
 8000a0c:	4770      	bx	lr
 8000a0e:	bf00      	nop

08000a10 <__aeabi_cdrcmple>:
 8000a10:	4684      	mov	ip, r0
 8000a12:	4610      	mov	r0, r2
 8000a14:	4662      	mov	r2, ip
 8000a16:	468c      	mov	ip, r1
 8000a18:	4619      	mov	r1, r3
 8000a1a:	4663      	mov	r3, ip
 8000a1c:	e000      	b.n	8000a20 <__aeabi_cdcmpeq>
 8000a1e:	bf00      	nop

08000a20 <__aeabi_cdcmpeq>:
 8000a20:	b501      	push	{r0, lr}
 8000a22:	f7ff ffb7 	bl	8000994 <__cmpdf2>
 8000a26:	2800      	cmp	r0, #0
 8000a28:	bf48      	it	mi
 8000a2a:	f110 0f00 	cmnmi.w	r0, #0
 8000a2e:	bd01      	pop	{r0, pc}

08000a30 <__aeabi_dcmpeq>:
 8000a30:	f84d ed08 	str.w	lr, [sp, #-8]!
 8000a34:	f7ff fff4 	bl	8000a20 <__aeabi_cdcmpeq>
 8000a38:	bf0c      	ite	eq
 8000a3a:	2001      	moveq	r0, #1
 8000a3c:	2000      	movne	r0, #0
 8000a3e:	f85d fb08 	ldr.w	pc, [sp], #8
 8000a42:	bf00      	nop

08000a44 <__aeabi_dcmplt>:
 8000a44:	f84d ed08 	str.w	lr, [sp, #-8]!
 8000a48:	f7ff ffea 	bl	8000a20 <__aeabi_cdcmpeq>
 8000a4c:	bf34      	ite	cc
 8000a4e:	2001      	movcc	r0, #1
 8000a50:	2000      	movcs	r0, #0
 8000a52:	f85d fb08 	ldr.w	pc, [sp], #8
 8000a56:	bf00      	nop

08000a58 <__aeabi_dcmple>:
 8000a58:	f84d ed08 	str.w	lr, [sp, #-8]!
 8000a5c:	f7ff ffe0 	bl	8000a20 <__aeabi_cdcmpeq>
 8000a60:	bf94      	ite	ls
 8000a62:	2001      	movls	r0, #1
 8000a64:	2000      	movhi	r0, #0
 8000a66:	f85d fb08 	ldr.w	pc, [sp], #8
 8000a6a:	bf00      	nop

08000a6c <__aeabi_dcmpge>:
 8000a6c:	f84d ed08 	str.w	lr, [sp, #-8]!
 8000a70:	f7ff ffce 	bl	8000a10 <__aeabi_cdrcmple>
 8000a74:	bf94      	ite	ls
 8000a76:	2001      	movls	r0, #1
 8000a78:	2000      	movhi	r0, #0
 8000a7a:	f85d fb08 	ldr.w	pc, [sp], #8
 8000a7e:	bf00      	nop

08000a80 <__aeabi_dcmpgt>:
 8000a80:	f84d ed08 	str.w	lr, [sp, #-8]!
 8000a84:	f7ff ffc4 	bl	8000a10 <__aeabi_cdrcmple>
 8000a88:	bf34      	ite	cc
 8000a8a:	2001      	movcc	r0, #1
 8000a8c:	2000      	movcs	r0, #0
 8000a8e:	f85d fb08 	ldr.w	pc, [sp], #8
 8000a92:	bf00      	nop

08000a94 <__aeabi_dcmpun>:
 8000a94:	ea4f 0c41 	mov.w	ip, r1, lsl #1
 8000a98:	ea7f 5c6c 	mvns.w	ip, ip, asr #21
 8000a9c:	d102      	bne.n	8000aa4 <__aeabi_dcmpun+0x10>
 8000a9e:	ea50 3c01 	orrs.w	ip, r0, r1, lsl #12
 8000aa2:	d10a      	bne.n	8000aba <__aeabi_dcmpun+0x26>
 8000aa4:	ea4f 0c43 	mov.w	ip, r3, lsl #1
 8000aa8:	ea7f 5c6c 	mvns.w	ip, ip, asr #21
 8000aac:	d102      	bne.n	8000ab4 <__aeabi_dcmpun+0x20>
 8000aae:	ea52 3c03 	orrs.w	ip, r2, r3, lsl #12
 8000ab2:	d102      	bne.n	8000aba <__aeabi_dcmpun+0x26>
 8000ab4:	f04f 0000 	mov.w	r0, #0
 8000ab8:	4770      	bx	lr
 8000aba:	f04f 0001 	mov.w	r0, #1
 8000abe:	4770      	bx	lr

08000ac0 <__aeabi_d2iz>:
 8000ac0:	ea4f 0241 	mov.w	r2, r1, lsl #1
 8000ac4:	f512 1200 	adds.w	r2, r2, #2097152	; 0x200000
 8000ac8:	d215      	bcs.n	8000af6 <__aeabi_d2iz+0x36>
 8000aca:	d511      	bpl.n	8000af0 <__aeabi_d2iz+0x30>
 8000acc:	f46f 7378 	mvn.w	r3, #992	; 0x3e0
 8000ad0:	ebb3 5262 	subs.w	r2, r3, r2, asr #21
 8000ad4:	d912      	bls.n	8000afc <__aeabi_d2iz+0x3c>
 8000ad6:	ea4f 23c1 	mov.w	r3, r1, lsl #11
 8000ada:	f043 4300 	orr.w	r3, r3, #2147483648	; 0x80000000
 8000ade:	ea43 5350 	orr.w	r3, r3, r0, lsr #21
 8000ae2:	f011 4f00 	tst.w	r1, #2147483648	; 0x80000000
 8000ae6:	fa23 f002 	lsr.w	r0, r3, r2
 8000aea:	bf18      	it	ne
 8000aec:	4240      	negne	r0, r0
 8000aee:	4770      	bx	lr
 8000af0:	f04f 0000 	mov.w	r0, #0
 8000af4:	4770      	bx	lr
 8000af6:	ea50 3001 	orrs.w	r0, r0, r1, lsl #12
 8000afa:	d105      	bne.n	8000b08 <__aeabi_d2iz+0x48>
 8000afc:	f011 4000 	ands.w	r0, r1, #2147483648	; 0x80000000
 8000b00:	bf08      	it	eq
 8000b02:	f06f 4000 	mvneq.w	r0, #2147483648	; 0x80000000
 8000b06:	4770      	bx	lr
 8000b08:	f04f 0000 	mov.w	r0, #0
 8000b0c:	4770      	bx	lr
 8000b0e:	bf00      	nop

08000b10 <__aeabi_uldivmod>:
 8000b10:	b953      	cbnz	r3, 8000b28 <__aeabi_uldivmod+0x18>
 8000b12:	b94a      	cbnz	r2, 8000b28 <__aeabi_uldivmod+0x18>
 8000b14:	2900      	cmp	r1, #0
 8000b16:	bf08      	it	eq
 8000b18:	2800      	cmpeq	r0, #0
 8000b1a:	bf1c      	itt	ne
 8000b1c:	f04f 31ff 	movne.w	r1, #4294967295
 8000b20:	f04f 30ff 	movne.w	r0, #4294967295
 8000b24:	f000 b972 	b.w	8000e0c <__aeabi_idiv0>
 8000b28:	f1ad 0c08 	sub.w	ip, sp, #8
 8000b2c:	e96d ce04 	strd	ip, lr, [sp, #-16]!
 8000b30:	f000 f806 	bl	8000b40 <__udivmoddi4>
 8000b34:	f8dd e004 	ldr.w	lr, [sp, #4]
 8000b38:	e9dd 2302 	ldrd	r2, r3, [sp, #8]
 8000b3c:	b004      	add	sp, #16
 8000b3e:	4770      	bx	lr

08000b40 <__udivmoddi4>:
 8000b40:	e92d 47f0 	stmdb	sp!, {r4, r5, r6, r7, r8, r9, sl, lr}
 8000b44:	9e08      	ldr	r6, [sp, #32]
 8000b46:	4604      	mov	r4, r0
 8000b48:	4688      	mov	r8, r1
 8000b4a:	2b00      	cmp	r3, #0
 8000b4c:	d14b      	bne.n	8000be6 <__udivmoddi4+0xa6>
 8000b4e:	428a      	cmp	r2, r1
 8000b50:	4615      	mov	r5, r2
 8000b52:	d967      	bls.n	8000c24 <__udivmoddi4+0xe4>
 8000b54:	fab2 f282 	clz	r2, r2
 8000b58:	b14a      	cbz	r2, 8000b6e <__udivmoddi4+0x2e>
 8000b5a:	f1c2 0720 	rsb	r7, r2, #32
 8000b5e:	fa01 f302 	lsl.w	r3, r1, r2
 8000b62:	fa20 f707 	lsr.w	r7, r0, r7
 8000b66:	4095      	lsls	r5, r2
 8000b68:	ea47 0803 	orr.w	r8, r7, r3
 8000b6c:	4094      	lsls	r4, r2
 8000b6e:	ea4f 4e15 	mov.w	lr, r5, lsr #16
 8000b72:	0c23      	lsrs	r3, r4, #16
 8000b74:	fbb8 f7fe 	udiv	r7, r8, lr
 8000b78:	fa1f fc85 	uxth.w	ip, r5
 8000b7c:	fb0e 8817 	mls	r8, lr, r7, r8
 8000b80:	ea43 4308 	orr.w	r3, r3, r8, lsl #16
 8000b84:	fb07 f10c 	mul.w	r1, r7, ip
 8000b88:	4299      	cmp	r1, r3
 8000b8a:	d909      	bls.n	8000ba0 <__udivmoddi4+0x60>
 8000b8c:	18eb      	adds	r3, r5, r3
 8000b8e:	f107 30ff 	add.w	r0, r7, #4294967295
 8000b92:	f080 811b 	bcs.w	8000dcc <__udivmoddi4+0x28c>
 8000b96:	4299      	cmp	r1, r3
 8000b98:	f240 8118 	bls.w	8000dcc <__udivmoddi4+0x28c>
 8000b9c:	3f02      	subs	r7, #2
 8000b9e:	442b      	add	r3, r5
 8000ba0:	1a5b      	subs	r3, r3, r1
 8000ba2:	b2a4      	uxth	r4, r4
 8000ba4:	fbb3 f0fe 	udiv	r0, r3, lr
 8000ba8:	fb0e 3310 	mls	r3, lr, r0, r3
 8000bac:	ea44 4403 	orr.w	r4, r4, r3, lsl #16
 8000bb0:	fb00 fc0c 	mul.w	ip, r0, ip
 8000bb4:	45a4      	cmp	ip, r4
 8000bb6:	d909      	bls.n	8000bcc <__udivmoddi4+0x8c>
 8000bb8:	192c      	adds	r4, r5, r4
 8000bba:	f100 33ff 	add.w	r3, r0, #4294967295
 8000bbe:	f080 8107 	bcs.w	8000dd0 <__udivmoddi4+0x290>
 8000bc2:	45a4      	cmp	ip, r4
 8000bc4:	f240 8104 	bls.w	8000dd0 <__udivmoddi4+0x290>
 8000bc8:	3802      	subs	r0, #2
 8000bca:	442c      	add	r4, r5
 8000bcc:	ea40 4007 	orr.w	r0, r0, r7, lsl #16
 8000bd0:	eba4 040c 	sub.w	r4, r4, ip
 8000bd4:	2700      	movs	r7, #0
 8000bd6:	b11e      	cbz	r6, 8000be0 <__udivmoddi4+0xa0>
 8000bd8:	40d4      	lsrs	r4, r2
 8000bda:	2300      	movs	r3, #0
 8000bdc:	e9c6 4300 	strd	r4, r3, [r6]
 8000be0:	4639      	mov	r1, r7
 8000be2:	e8bd 87f0 	ldmia.w	sp!, {r4, r5, r6, r7, r8, r9, sl, pc}
 8000be6:	428b      	cmp	r3, r1
 8000be8:	d909      	bls.n	8000bfe <__udivmoddi4+0xbe>
 8000bea:	2e00      	cmp	r6, #0
 8000bec:	f000 80eb 	beq.w	8000dc6 <__udivmoddi4+0x286>
 8000bf0:	2700      	movs	r7, #0
 8000bf2:	e9c6 0100 	strd	r0, r1, [r6]
 8000bf6:	4638      	mov	r0, r7
 8000bf8:	4639      	mov	r1, r7
 8000bfa:	e8bd 87f0 	ldmia.w	sp!, {r4, r5, r6, r7, r8, r9, sl, pc}
 8000bfe:	fab3 f783 	clz	r7, r3
 8000c02:	2f00      	cmp	r7, #0
 8000c04:	d147      	bne.n	8000c96 <__udivmoddi4+0x156>
 8000c06:	428b      	cmp	r3, r1
 8000c08:	d302      	bcc.n	8000c10 <__udivmoddi4+0xd0>
 8000c0a:	4282      	cmp	r2, r0
 8000c0c:	f200 80fa 	bhi.w	8000e04 <__udivmoddi4+0x2c4>
 8000c10:	1a84      	subs	r4, r0, r2
 8000c12:	eb61 0303 	sbc.w	r3, r1, r3
 8000c16:	2001      	movs	r0, #1
 8000c18:	4698      	mov	r8, r3
 8000c1a:	2e00      	cmp	r6, #0
 8000c1c:	d0e0      	beq.n	8000be0 <__udivmoddi4+0xa0>
 8000c1e:	e9c6 4800 	strd	r4, r8, [r6]
 8000c22:	e7dd      	b.n	8000be0 <__udivmoddi4+0xa0>
 8000c24:	b902      	cbnz	r2, 8000c28 <__udivmoddi4+0xe8>
 8000c26:	deff      	udf	#255	; 0xff
 8000c28:	fab2 f282 	clz	r2, r2
 8000c2c:	2a00      	cmp	r2, #0
 8000c2e:	f040 808f 	bne.w	8000d50 <__udivmoddi4+0x210>
 8000c32:	1b49      	subs	r1, r1, r5
 8000c34:	ea4f 4e15 	mov.w	lr, r5, lsr #16
 8000c38:	fa1f f885 	uxth.w	r8, r5
 8000c3c:	2701      	movs	r7, #1
 8000c3e:	fbb1 fcfe 	udiv	ip, r1, lr
 8000c42:	0c23      	lsrs	r3, r4, #16
 8000c44:	fb0e 111c 	mls	r1, lr, ip, r1
 8000c48:	ea43 4301 	orr.w	r3, r3, r1, lsl #16
 8000c4c:	fb08 f10c 	mul.w	r1, r8, ip
 8000c50:	4299      	cmp	r1, r3
 8000c52:	d907      	bls.n	8000c64 <__udivmoddi4+0x124>
 8000c54:	18eb      	adds	r3, r5, r3
 8000c56:	f10c 30ff 	add.w	r0, ip, #4294967295
 8000c5a:	d202      	bcs.n	8000c62 <__udivmoddi4+0x122>
 8000c5c:	4299      	cmp	r1, r3
 8000c5e:	f200 80cd 	bhi.w	8000dfc <__udivmoddi4+0x2bc>
 8000c62:	4684      	mov	ip, r0
 8000c64:	1a59      	subs	r1, r3, r1
 8000c66:	b2a3      	uxth	r3, r4
 8000c68:	fbb1 f0fe 	udiv	r0, r1, lr
 8000c6c:	fb0e 1410 	mls	r4, lr, r0, r1
 8000c70:	ea43 4404 	orr.w	r4, r3, r4, lsl #16
 8000c74:	fb08 f800 	mul.w	r8, r8, r0
 8000c78:	45a0      	cmp	r8, r4
 8000c7a:	d907      	bls.n	8000c8c <__udivmoddi4+0x14c>
 8000c7c:	192c      	adds	r4, r5, r4
 8000c7e:	f100 33ff 	add.w	r3, r0, #4294967295
 8000c82:	d202      	bcs.n	8000c8a <__udivmoddi4+0x14a>
 8000c84:	45a0      	cmp	r8, r4
 8000c86:	f200 80b6 	bhi.w	8000df6 <__udivmoddi4+0x2b6>
 8000c8a:	4618      	mov	r0, r3
 8000c8c:	eba4 0408 	sub.w	r4, r4, r8
 8000c90:	ea40 400c 	orr.w	r0, r0, ip, lsl #16
 8000c94:	e79f      	b.n	8000bd6 <__udivmoddi4+0x96>
 8000c96:	f1c7 0c20 	rsb	ip, r7, #32
 8000c9a:	40bb      	lsls	r3, r7
 8000c9c:	fa22 fe0c 	lsr.w	lr, r2, ip
 8000ca0:	ea4e 0e03 	orr.w	lr, lr, r3
 8000ca4:	fa01 f407 	lsl.w	r4, r1, r7
 8000ca8:	fa20 f50c 	lsr.w	r5, r0, ip
 8000cac:	fa21 f30c 	lsr.w	r3, r1, ip
 8000cb0:	ea4f 481e 	mov.w	r8, lr, lsr #16
 8000cb4:	4325      	orrs	r5, r4
 8000cb6:	fbb3 f9f8 	udiv	r9, r3, r8
 8000cba:	0c2c      	lsrs	r4, r5, #16
 8000cbc:	fb08 3319 	mls	r3, r8, r9, r3
 8000cc0:	fa1f fa8e 	uxth.w	sl, lr
 8000cc4:	ea44 4303 	orr.w	r3, r4, r3, lsl #16
 8000cc8:	fb09 f40a 	mul.w	r4, r9, sl
 8000ccc:	429c      	cmp	r4, r3
 8000cce:	fa02 f207 	lsl.w	r2, r2, r7
 8000cd2:	fa00 f107 	lsl.w	r1, r0, r7
 8000cd6:	d90b      	bls.n	8000cf0 <__udivmoddi4+0x1b0>
 8000cd8:	eb1e 0303 	adds.w	r3, lr, r3
 8000cdc:	f109 30ff 	add.w	r0, r9, #4294967295
 8000ce0:	f080 8087 	bcs.w	8000df2 <__udivmoddi4+0x2b2>
 8000ce4:	429c      	cmp	r4, r3
 8000ce6:	f240 8084 	bls.w	8000df2 <__udivmoddi4+0x2b2>
 8000cea:	f1a9 0902 	sub.w	r9, r9, #2
 8000cee:	4473      	add	r3, lr
 8000cf0:	1b1b      	subs	r3, r3, r4
 8000cf2:	b2ad      	uxth	r5, r5
 8000cf4:	fbb3 f0f8 	udiv	r0, r3, r8
 8000cf8:	fb08 3310 	mls	r3, r8, r0, r3
 8000cfc:	ea45 4403 	orr.w	r4, r5, r3, lsl #16
 8000d00:	fb00 fa0a 	mul.w	sl, r0, sl
 8000d04:	45a2      	cmp	sl, r4
 8000d06:	d908      	bls.n	8000d1a <__udivmoddi4+0x1da>
 8000d08:	eb1e 0404 	adds.w	r4, lr, r4
 8000d0c:	f100 33ff 	add.w	r3, r0, #4294967295
 8000d10:	d26b      	bcs.n	8000dea <__udivmoddi4+0x2aa>
 8000d12:	45a2      	cmp	sl, r4
 8000d14:	d969      	bls.n	8000dea <__udivmoddi4+0x2aa>
 8000d16:	3802      	subs	r0, #2
 8000d18:	4474      	add	r4, lr
 8000d1a:	ea40 4009 	orr.w	r0, r0, r9, lsl #16
 8000d1e:	fba0 8902 	umull	r8, r9, r0, r2
 8000d22:	eba4 040a 	sub.w	r4, r4, sl
 8000d26:	454c      	cmp	r4, r9
 8000d28:	46c2      	mov	sl, r8
 8000d2a:	464b      	mov	r3, r9
 8000d2c:	d354      	bcc.n	8000dd8 <__udivmoddi4+0x298>
 8000d2e:	d051      	beq.n	8000dd4 <__udivmoddi4+0x294>
 8000d30:	2e00      	cmp	r6, #0
 8000d32:	d069      	beq.n	8000e08 <__udivmoddi4+0x2c8>
 8000d34:	ebb1 050a 	subs.w	r5, r1, sl
 8000d38:	eb64 0403 	sbc.w	r4, r4, r3
 8000d3c:	fa04 fc0c 	lsl.w	ip, r4, ip
 8000d40:	40fd      	lsrs	r5, r7
 8000d42:	40fc      	lsrs	r4, r7
 8000d44:	ea4c 0505 	orr.w	r5, ip, r5
 8000d48:	e9c6 5400 	strd	r5, r4, [r6]
 8000d4c:	2700      	movs	r7, #0
 8000d4e:	e747      	b.n	8000be0 <__udivmoddi4+0xa0>
 8000d50:	f1c2 0320 	rsb	r3, r2, #32
 8000d54:	fa20 f703 	lsr.w	r7, r0, r3
 8000d58:	4095      	lsls	r5, r2
 8000d5a:	fa01 f002 	lsl.w	r0, r1, r2
 8000d5e:	fa21 f303 	lsr.w	r3, r1, r3
 8000d62:	ea4f 4e15 	mov.w	lr, r5, lsr #16
 8000d66:	4338      	orrs	r0, r7
 8000d68:	0c01      	lsrs	r1, r0, #16
 8000d6a:	fbb3 f7fe 	udiv	r7, r3, lr
 8000d6e:	fa1f f885 	uxth.w	r8, r5
 8000d72:	fb0e 3317 	mls	r3, lr, r7, r3
 8000d76:	ea41 4103 	orr.w	r1, r1, r3, lsl #16
 8000d7a:	fb07 f308 	mul.w	r3, r7, r8
 8000d7e:	428b      	cmp	r3, r1
 8000d80:	fa04 f402 	lsl.w	r4, r4, r2
 8000d84:	d907      	bls.n	8000d96 <__udivmoddi4+0x256>
 8000d86:	1869      	adds	r1, r5, r1
 8000d88:	f107 3cff 	add.w	ip, r7, #4294967295
 8000d8c:	d22f      	bcs.n	8000dee <__udivmoddi4+0x2ae>
 8000d8e:	428b      	cmp	r3, r1
 8000d90:	d92d      	bls.n	8000dee <__udivmoddi4+0x2ae>
 8000d92:	3f02      	subs	r7, #2
 8000d94:	4429      	add	r1, r5
 8000d96:	1acb      	subs	r3, r1, r3
 8000d98:	b281      	uxth	r1, r0
 8000d9a:	fbb3 f0fe 	udiv	r0, r3, lr
 8000d9e:	fb0e 3310 	mls	r3, lr, r0, r3
 8000da2:	ea41 4103 	orr.w	r1, r1, r3, lsl #16
 8000da6:	fb00 f308 	mul.w	r3, r0, r8
 8000daa:	428b      	cmp	r3, r1
 8000dac:	d907      	bls.n	8000dbe <__udivmoddi4+0x27e>
 8000dae:	1869      	adds	r1, r5, r1
 8000db0:	f100 3cff 	add.w	ip, r0, #4294967295
 8000db4:	d217      	bcs.n	8000de6 <__udivmoddi4+0x2a6>
 8000db6:	428b      	cmp	r3, r1
 8000db8:	d915      	bls.n	8000de6 <__udivmoddi4+0x2a6>
 8000dba:	3802      	subs	r0, #2
 8000dbc:	4429      	add	r1, r5
 8000dbe:	1ac9      	subs	r1, r1, r3
 8000dc0:	ea40 4707 	orr.w	r7, r0, r7, lsl #16
 8000dc4:	e73b      	b.n	8000c3e <__udivmoddi4+0xfe>
 8000dc6:	4637      	mov	r7, r6
 8000dc8:	4630      	mov	r0, r6
 8000dca:	e709      	b.n	8000be0 <__udivmoddi4+0xa0>
 8000dcc:	4607      	mov	r7, r0
 8000dce:	e6e7      	b.n	8000ba0 <__udivmoddi4+0x60>
 8000dd0:	4618      	mov	r0, r3
 8000dd2:	e6fb      	b.n	8000bcc <__udivmoddi4+0x8c>
 8000dd4:	4541      	cmp	r1, r8
 8000dd6:	d2ab      	bcs.n	8000d30 <__udivmoddi4+0x1f0>
 8000dd8:	ebb8 0a02 	subs.w	sl, r8, r2
 8000ddc:	eb69 020e 	sbc.w	r2, r9, lr
 8000de0:	3801      	subs	r0, #1
 8000de2:	4613      	mov	r3, r2
 8000de4:	e7a4      	b.n	8000d30 <__udivmoddi4+0x1f0>
 8000de6:	4660      	mov	r0, ip
 8000de8:	e7e9      	b.n	8000dbe <__udivmoddi4+0x27e>
 8000dea:	4618      	mov	r0, r3
 8000dec:	e795      	b.n	8000d1a <__udivmoddi4+0x1da>
 8000dee:	4667      	mov	r7, ip
 8000df0:	e7d1      	b.n	8000d96 <__udivmoddi4+0x256>
 8000df2:	4681      	mov	r9, r0
 8000df4:	e77c      	b.n	8000cf0 <__udivmoddi4+0x1b0>
 8000df6:	3802      	subs	r0, #2
 8000df8:	442c      	add	r4, r5
 8000dfa:	e747      	b.n	8000c8c <__udivmoddi4+0x14c>
 8000dfc:	f1ac 0c02 	sub.w	ip, ip, #2
 8000e00:	442b      	add	r3, r5
 8000e02:	e72f      	b.n	8000c64 <__udivmoddi4+0x124>
 8000e04:	4638      	mov	r0, r7
 8000e06:	e708      	b.n	8000c1a <__udivmoddi4+0xda>
 8000e08:	4637      	mov	r7, r6
 8000e0a:	e6e9      	b.n	8000be0 <__udivmoddi4+0xa0>

08000e0c <__aeabi_idiv0>:
 8000e0c:	4770      	bx	lr
 8000e0e:	bf00      	nop

08000e10 <ReadBlueTooth>:
	return returnVal;
 }
 /**
   * @brief This function reads BlueTooth data and stores it in the data buffer.
 */
 void ReadBlueTooth(char dataBuffer){
 8000e10:	b580      	push	{r7, lr}
 8000e12:	b082      	sub	sp, #8
 8000e14:	af00      	add	r7, sp, #0
 8000e16:	4603      	mov	r3, r0
 8000e18:	71fb      	strb	r3, [r7, #7]
	 HAL_UART_Receive(&huart1, &dataBuffer, 1, 10);
 8000e1a:	1df9      	adds	r1, r7, #7
 8000e1c:	230a      	movs	r3, #10
 8000e1e:	2201      	movs	r2, #1
 8000e20:	4803      	ldr	r0, [pc, #12]	; (8000e30 <ReadBlueTooth+0x20>)
 8000e22:	f001 fcfa 	bl	800281a <HAL_UART_Receive>
 }
 8000e26:	bf00      	nop
 8000e28:	3708      	adds	r7, #8
 8000e2a:	46bd      	mov	sp, r7
 8000e2c:	bd80      	pop	{r7, pc}
 8000e2e:	bf00      	nop
 8000e30:	2000025c 	.word	0x2000025c

08000e34 <ITM_SendChar>:
           \li Is blocking when a debugger is connected, but the previous character sent has not been transmitted.
  \param [in]     ch  Character to transmit.
  \returns            Character to transmit.
 */
__STATIC_INLINE uint32_t ITM_SendChar (uint32_t ch)
{
 8000e34:	b480      	push	{r7}
 8000e36:	b083      	sub	sp, #12
 8000e38:	af00      	add	r7, sp, #0
 8000e3a:	6078      	str	r0, [r7, #4]
  if (((ITM->TCR & ITM_TCR_ITMENA_Msk) != 0UL) &&      /* ITM enabled */
 8000e3c:	f04f 4360 	mov.w	r3, #3758096384	; 0xe0000000
 8000e40:	f8d3 3e80 	ldr.w	r3, [r3, #3712]	; 0xe80
 8000e44:	f003 0301 	and.w	r3, r3, #1
 8000e48:	2b00      	cmp	r3, #0
 8000e4a:	d013      	beq.n	8000e74 <ITM_SendChar+0x40>
      ((ITM->TER & 1UL               ) != 0UL)   )     /* ITM Port #0 enabled */
 8000e4c:	f04f 4360 	mov.w	r3, #3758096384	; 0xe0000000
 8000e50:	f8d3 3e00 	ldr.w	r3, [r3, #3584]	; 0xe00
 8000e54:	f003 0301 	and.w	r3, r3, #1
  if (((ITM->TCR & ITM_TCR_ITMENA_Msk) != 0UL) &&      /* ITM enabled */
 8000e58:	2b00      	cmp	r3, #0
 8000e5a:	d00b      	beq.n	8000e74 <ITM_SendChar+0x40>
  {
    while (ITM->PORT[0U].u32 == 0UL)
 8000e5c:	e000      	b.n	8000e60 <ITM_SendChar+0x2c>
    {
      __NOP();
 8000e5e:	bf00      	nop
    while (ITM->PORT[0U].u32 == 0UL)
 8000e60:	f04f 4360 	mov.w	r3, #3758096384	; 0xe0000000
 8000e64:	681b      	ldr	r3, [r3, #0]
 8000e66:	2b00      	cmp	r3, #0
 8000e68:	d0f9      	beq.n	8000e5e <ITM_SendChar+0x2a>
    }
    ITM->PORT[0U].u8 = (uint8_t)ch;
 8000e6a:	f04f 4360 	mov.w	r3, #3758096384	; 0xe0000000
 8000e6e:	687a      	ldr	r2, [r7, #4]
 8000e70:	b2d2      	uxtb	r2, r2
 8000e72:	701a      	strb	r2, [r3, #0]
  }
  return (ch);
 8000e74:	687b      	ldr	r3, [r7, #4]
}
 8000e76:	4618      	mov	r0, r3
 8000e78:	370c      	adds	r7, #12
 8000e7a:	46bd      	mov	sp, r7
 8000e7c:	f85d 7b04 	ldr.w	r7, [sp], #4
 8000e80:	4770      	bx	lr
	...

08000e84 <main>:
/**
  * @brief  The application entry point.
  * @retval int
  */
int main(void)
{
 8000e84:	b590      	push	{r4, r7, lr}
 8000e86:	b085      	sub	sp, #20
 8000e88:	af00      	add	r7, sp, #0
  

  /* MCU Configuration--------------------------------------------------------*/

  /* Reset of all peripherals, Initializes the Flash interface and the Systick. */
  HAL_Init();
 8000e8a:	f000 fae7 	bl	800145c <HAL_Init>
  /* USER CODE BEGIN Init */

  /* USER CODE END Init */

  /* Configure the system clock */
  SystemClock_Config();
 8000e8e:	f000 f81f 	bl	8000ed0 <SystemClock_Config>
  /* USER CODE BEGIN SysInit */

  /* USER CODE END SysInit */

  /* Initialize all configured peripherals */
  MX_GPIO_Init();
 8000e92:	f000 f8f5 	bl	8001080 <MX_GPIO_Init>
  MX_ADC1_Init();
 8000e96:	f000 f87b 	bl	8000f90 <MX_ADC1_Init>
  MX_USART1_UART_Init();
 8000e9a:	f000 f8c7 	bl	800102c <MX_USART1_UART_Init>
  /* USER CODE BEGIN 2 */
  double x;
  char c = 'd';
 8000e9e:	2364      	movs	r3, #100	; 0x64
 8000ea0:	71fb      	strb	r3, [r7, #7]
  {
    /* USER CODE END WHILE */

    /* USER CODE BEGIN 3 */
	//x = GetTempVal();
	  x++;
 8000ea2:	f04f 0200 	mov.w	r2, #0
 8000ea6:	4b09      	ldr	r3, [pc, #36]	; (8000ecc <main+0x48>)
 8000ea8:	e9d7 0102 	ldrd	r0, r1, [r7, #8]
 8000eac:	f7ff f9a2 	bl	80001f4 <__adddf3>
 8000eb0:	4603      	mov	r3, r0
 8000eb2:	460c      	mov	r4, r1
 8000eb4:	e9c7 3402 	strd	r3, r4, [r7, #8]
	ReadBlueTooth(c);
 8000eb8:	79fb      	ldrb	r3, [r7, #7]
 8000eba:	4618      	mov	r0, r3
 8000ebc:	f7ff ffa8 	bl	8000e10 <ReadBlueTooth>
	ITM_SendChar(c);
 8000ec0:	79fb      	ldrb	r3, [r7, #7]
 8000ec2:	4618      	mov	r0, r3
 8000ec4:	f7ff ffb6 	bl	8000e34 <ITM_SendChar>
	  x++;
 8000ec8:	e7eb      	b.n	8000ea2 <main+0x1e>
 8000eca:	bf00      	nop
 8000ecc:	3ff00000 	.word	0x3ff00000

08000ed0 <SystemClock_Config>:
/**
  * @brief System Clock Configuration
  * @retval None
  */
void SystemClock_Config(void)
{
 8000ed0:	b580      	push	{r7, lr}
 8000ed2:	b094      	sub	sp, #80	; 0x50
 8000ed4:	af00      	add	r7, sp, #0
  RCC_OscInitTypeDef RCC_OscInitStruct = {0};
 8000ed6:	f107 0320 	add.w	r3, r7, #32
 8000eda:	2230      	movs	r2, #48	; 0x30
 8000edc:	2100      	movs	r1, #0
 8000ede:	4618      	mov	r0, r3
 8000ee0:	f002 f932 	bl	8003148 <memset>
  RCC_ClkInitTypeDef RCC_ClkInitStruct = {0};
 8000ee4:	f107 030c 	add.w	r3, r7, #12
 8000ee8:	2200      	movs	r2, #0
 8000eea:	601a      	str	r2, [r3, #0]
 8000eec:	605a      	str	r2, [r3, #4]
 8000eee:	609a      	str	r2, [r3, #8]
 8000ef0:	60da      	str	r2, [r3, #12]
 8000ef2:	611a      	str	r2, [r3, #16]

  /** Configure the main internal regulator output voltage 
  */
  __HAL_RCC_PWR_CLK_ENABLE();
 8000ef4:	2300      	movs	r3, #0
 8000ef6:	60bb      	str	r3, [r7, #8]
 8000ef8:	4b23      	ldr	r3, [pc, #140]	; (8000f88 <SystemClock_Config+0xb8>)
 8000efa:	6c1b      	ldr	r3, [r3, #64]	; 0x40
 8000efc:	4a22      	ldr	r2, [pc, #136]	; (8000f88 <SystemClock_Config+0xb8>)
 8000efe:	f043 5380 	orr.w	r3, r3, #268435456	; 0x10000000
 8000f02:	6413      	str	r3, [r2, #64]	; 0x40
 8000f04:	4b20      	ldr	r3, [pc, #128]	; (8000f88 <SystemClock_Config+0xb8>)
 8000f06:	6c1b      	ldr	r3, [r3, #64]	; 0x40
 8000f08:	f003 5380 	and.w	r3, r3, #268435456	; 0x10000000
 8000f0c:	60bb      	str	r3, [r7, #8]
 8000f0e:	68bb      	ldr	r3, [r7, #8]
  __HAL_PWR_VOLTAGESCALING_CONFIG(PWR_REGULATOR_VOLTAGE_SCALE2);
 8000f10:	2300      	movs	r3, #0
 8000f12:	607b      	str	r3, [r7, #4]
 8000f14:	4b1d      	ldr	r3, [pc, #116]	; (8000f8c <SystemClock_Config+0xbc>)
 8000f16:	681b      	ldr	r3, [r3, #0]
 8000f18:	f423 4340 	bic.w	r3, r3, #49152	; 0xc000
 8000f1c:	4a1b      	ldr	r2, [pc, #108]	; (8000f8c <SystemClock_Config+0xbc>)
 8000f1e:	f443 4300 	orr.w	r3, r3, #32768	; 0x8000
 8000f22:	6013      	str	r3, [r2, #0]
 8000f24:	4b19      	ldr	r3, [pc, #100]	; (8000f8c <SystemClock_Config+0xbc>)
 8000f26:	681b      	ldr	r3, [r3, #0]
 8000f28:	f403 4340 	and.w	r3, r3, #49152	; 0xc000
 8000f2c:	607b      	str	r3, [r7, #4]
 8000f2e:	687b      	ldr	r3, [r7, #4]
  /** Initializes the CPU, AHB and APB busses clocks 
  */
  RCC_OscInitStruct.OscillatorType = RCC_OSCILLATORTYPE_HSI;
 8000f30:	2302      	movs	r3, #2
 8000f32:	623b      	str	r3, [r7, #32]
  RCC_OscInitStruct.HSIState = RCC_HSI_ON;
 8000f34:	2301      	movs	r3, #1
 8000f36:	62fb      	str	r3, [r7, #44]	; 0x2c
  RCC_OscInitStruct.HSICalibrationValue = RCC_HSICALIBRATION_DEFAULT;
 8000f38:	2310      	movs	r3, #16
 8000f3a:	633b      	str	r3, [r7, #48]	; 0x30
  RCC_OscInitStruct.PLL.PLLState = RCC_PLL_NONE;
 8000f3c:	2300      	movs	r3, #0
 8000f3e:	63bb      	str	r3, [r7, #56]	; 0x38
  if (HAL_RCC_OscConfig(&RCC_OscInitStruct) != HAL_OK)
 8000f40:	f107 0320 	add.w	r3, r7, #32
 8000f44:	4618      	mov	r0, r3
 8000f46:	f000 ffdf 	bl	8001f08 <HAL_RCC_OscConfig>
 8000f4a:	4603      	mov	r3, r0
 8000f4c:	2b00      	cmp	r3, #0
 8000f4e:	d001      	beq.n	8000f54 <SystemClock_Config+0x84>
  {
    Error_Handler();
 8000f50:	f000 f912 	bl	8001178 <Error_Handler>
  }
  /** Initializes the CPU, AHB and APB busses clocks 
  */
  RCC_ClkInitStruct.ClockType = RCC_CLOCKTYPE_HCLK|RCC_CLOCKTYPE_SYSCLK
 8000f54:	230f      	movs	r3, #15
 8000f56:	60fb      	str	r3, [r7, #12]
                              |RCC_CLOCKTYPE_PCLK1|RCC_CLOCKTYPE_PCLK2;
  RCC_ClkInitStruct.SYSCLKSource = RCC_SYSCLKSOURCE_HSI;
 8000f58:	2300      	movs	r3, #0
 8000f5a:	613b      	str	r3, [r7, #16]
  RCC_ClkInitStruct.AHBCLKDivider = RCC_SYSCLK_DIV1;
 8000f5c:	2300      	movs	r3, #0
 8000f5e:	617b      	str	r3, [r7, #20]
  RCC_ClkInitStruct.APB1CLKDivider = RCC_HCLK_DIV1;
 8000f60:	2300      	movs	r3, #0
 8000f62:	61bb      	str	r3, [r7, #24]
  RCC_ClkInitStruct.APB2CLKDivider = RCC_HCLK_DIV1;
 8000f64:	2300      	movs	r3, #0
 8000f66:	61fb      	str	r3, [r7, #28]

  if (HAL_RCC_ClockConfig(&RCC_ClkInitStruct, FLASH_LATENCY_0) != HAL_OK)
 8000f68:	f107 030c 	add.w	r3, r7, #12
 8000f6c:	2100      	movs	r1, #0
 8000f6e:	4618      	mov	r0, r3
 8000f70:	f001 fa3a 	bl	80023e8 <HAL_RCC_ClockConfig>
 8000f74:	4603      	mov	r3, r0
 8000f76:	2b00      	cmp	r3, #0
 8000f78:	d001      	beq.n	8000f7e <SystemClock_Config+0xae>
  {
    Error_Handler();
 8000f7a:	f000 f8fd 	bl	8001178 <Error_Handler>
  }
}
 8000f7e:	bf00      	nop
 8000f80:	3750      	adds	r7, #80	; 0x50
 8000f82:	46bd      	mov	sp, r7
 8000f84:	bd80      	pop	{r7, pc}
 8000f86:	bf00      	nop
 8000f88:	40023800 	.word	0x40023800
 8000f8c:	40007000 	.word	0x40007000

08000f90 <MX_ADC1_Init>:
  * @brief ADC1 Initialization Function
  * @param None
  * @retval None
  */
static void MX_ADC1_Init(void)
{
 8000f90:	b580      	push	{r7, lr}
 8000f92:	af00      	add	r7, sp, #0
  /* USER CODE BEGIN ADC1_Init 1 */

  /* USER CODE END ADC1_Init 1 */
  /** Configure the global features of the ADC (Clock, Resolution, Data Alignment and number of conversion) 
  */
  hadc1.Instance = ADC1;
 8000f94:	4b21      	ldr	r3, [pc, #132]	; (800101c <MX_ADC1_Init+0x8c>)
 8000f96:	4a22      	ldr	r2, [pc, #136]	; (8001020 <MX_ADC1_Init+0x90>)
 8000f98:	601a      	str	r2, [r3, #0]
  hadc1.Init.ClockPrescaler = ADC_CLOCK_SYNC_PCLK_DIV8;
 8000f9a:	4b20      	ldr	r3, [pc, #128]	; (800101c <MX_ADC1_Init+0x8c>)
 8000f9c:	f44f 3240 	mov.w	r2, #196608	; 0x30000
 8000fa0:	605a      	str	r2, [r3, #4]
  hadc1.Init.Resolution = ADC_RESOLUTION_8B;
 8000fa2:	4b1e      	ldr	r3, [pc, #120]	; (800101c <MX_ADC1_Init+0x8c>)
 8000fa4:	f04f 7200 	mov.w	r2, #33554432	; 0x2000000
 8000fa8:	609a      	str	r2, [r3, #8]
  hadc1.Init.ScanConvMode = DISABLE;
 8000faa:	4b1c      	ldr	r3, [pc, #112]	; (800101c <MX_ADC1_Init+0x8c>)
 8000fac:	2200      	movs	r2, #0
 8000fae:	611a      	str	r2, [r3, #16]
  hadc1.Init.ContinuousConvMode = DISABLE;
 8000fb0:	4b1a      	ldr	r3, [pc, #104]	; (800101c <MX_ADC1_Init+0x8c>)
 8000fb2:	2200      	movs	r2, #0
 8000fb4:	761a      	strb	r2, [r3, #24]
  hadc1.Init.DiscontinuousConvMode = DISABLE;
 8000fb6:	4b19      	ldr	r3, [pc, #100]	; (800101c <MX_ADC1_Init+0x8c>)
 8000fb8:	2200      	movs	r2, #0
 8000fba:	f883 2020 	strb.w	r2, [r3, #32]
  hadc1.Init.ExternalTrigConvEdge = ADC_EXTERNALTRIGCONVEDGE_NONE;
 8000fbe:	4b17      	ldr	r3, [pc, #92]	; (800101c <MX_ADC1_Init+0x8c>)
 8000fc0:	2200      	movs	r2, #0
 8000fc2:	62da      	str	r2, [r3, #44]	; 0x2c
  hadc1.Init.ExternalTrigConv = ADC_SOFTWARE_START;
 8000fc4:	4b15      	ldr	r3, [pc, #84]	; (800101c <MX_ADC1_Init+0x8c>)
 8000fc6:	4a17      	ldr	r2, [pc, #92]	; (8001024 <MX_ADC1_Init+0x94>)
 8000fc8:	629a      	str	r2, [r3, #40]	; 0x28
  hadc1.Init.DataAlign = ADC_DATAALIGN_RIGHT;
 8000fca:	4b14      	ldr	r3, [pc, #80]	; (800101c <MX_ADC1_Init+0x8c>)
 8000fcc:	2200      	movs	r2, #0
 8000fce:	60da      	str	r2, [r3, #12]
  hadc1.Init.NbrOfConversion = 1;
 8000fd0:	4b12      	ldr	r3, [pc, #72]	; (800101c <MX_ADC1_Init+0x8c>)
 8000fd2:	2201      	movs	r2, #1
 8000fd4:	61da      	str	r2, [r3, #28]
  hadc1.Init.DMAContinuousRequests = DISABLE;
 8000fd6:	4b11      	ldr	r3, [pc, #68]	; (800101c <MX_ADC1_Init+0x8c>)
 8000fd8:	2200      	movs	r2, #0
 8000fda:	f883 2030 	strb.w	r2, [r3, #48]	; 0x30
  hadc1.Init.EOCSelection = ADC_EOC_SINGLE_CONV;
 8000fde:	4b0f      	ldr	r3, [pc, #60]	; (800101c <MX_ADC1_Init+0x8c>)
 8000fe0:	2201      	movs	r2, #1
 8000fe2:	615a      	str	r2, [r3, #20]
  if (HAL_ADC_Init(&hadc1) != HAL_OK)
 8000fe4:	480d      	ldr	r0, [pc, #52]	; (800101c <MX_ADC1_Init+0x8c>)
 8000fe6:	f000 faab 	bl	8001540 <HAL_ADC_Init>
 8000fea:	4603      	mov	r3, r0
 8000fec:	2b00      	cmp	r3, #0
 8000fee:	d001      	beq.n	8000ff4 <MX_ADC1_Init+0x64>
  {
    Error_Handler();
 8000ff0:	f000 f8c2 	bl	8001178 <Error_Handler>
  }
  /** Configure for the selected ADC regular channel its corresponding rank in the sequencer and its sample time. 
  */
  sConfig.Channel = ADC_CHANNEL_6;
 8000ff4:	4b0c      	ldr	r3, [pc, #48]	; (8001028 <MX_ADC1_Init+0x98>)
 8000ff6:	2206      	movs	r2, #6
 8000ff8:	601a      	str	r2, [r3, #0]
  sConfig.Rank = 1;
 8000ffa:	4b0b      	ldr	r3, [pc, #44]	; (8001028 <MX_ADC1_Init+0x98>)
 8000ffc:	2201      	movs	r2, #1
 8000ffe:	605a      	str	r2, [r3, #4]
  sConfig.SamplingTime = ADC_SAMPLETIME_28CYCLES;
 8001000:	4b09      	ldr	r3, [pc, #36]	; (8001028 <MX_ADC1_Init+0x98>)
 8001002:	2202      	movs	r2, #2
 8001004:	609a      	str	r2, [r3, #8]
  if (HAL_ADC_ConfigChannel(&hadc1, &sConfig) != HAL_OK)
 8001006:	4908      	ldr	r1, [pc, #32]	; (8001028 <MX_ADC1_Init+0x98>)
 8001008:	4804      	ldr	r0, [pc, #16]	; (800101c <MX_ADC1_Init+0x8c>)
 800100a:	f000 fadd 	bl	80015c8 <HAL_ADC_ConfigChannel>
 800100e:	4603      	mov	r3, r0
 8001010:	2b00      	cmp	r3, #0
 8001012:	d001      	beq.n	8001018 <MX_ADC1_Init+0x88>
  {
    Error_Handler();
 8001014:	f000 f8b0 	bl	8001178 <Error_Handler>
  }
  /* USER CODE BEGIN ADC1_Init 2 */

  /* USER CODE END ADC1_Init 2 */

}
 8001018:	bf00      	nop
 800101a:	bd80      	pop	{r7, pc}
 800101c:	20000214 	.word	0x20000214
 8001020:	40012000 	.word	0x40012000
 8001024:	0f000001 	.word	0x0f000001
 8001028:	200001f8 	.word	0x200001f8

0800102c <MX_USART1_UART_Init>:
  * @brief USART1 Initialization Function
  * @param None
  * @retval None
  */
static void MX_USART1_UART_Init(void)
{
 800102c:	b580      	push	{r7, lr}
 800102e:	af00      	add	r7, sp, #0
  /* USER CODE END USART1_Init 0 */

  /* USER CODE BEGIN USART1_Init 1 */

  /* USER CODE END USART1_Init 1 */
  huart1.Instance = USART1;
 8001030:	4b11      	ldr	r3, [pc, #68]	; (8001078 <MX_USART1_UART_Init+0x4c>)
 8001032:	4a12      	ldr	r2, [pc, #72]	; (800107c <MX_USART1_UART_Init+0x50>)
 8001034:	601a      	str	r2, [r3, #0]
  huart1.Init.BaudRate = 9600;
 8001036:	4b10      	ldr	r3, [pc, #64]	; (8001078 <MX_USART1_UART_Init+0x4c>)
 8001038:	f44f 5216 	mov.w	r2, #9600	; 0x2580
 800103c:	605a      	str	r2, [r3, #4]
  huart1.Init.WordLength = UART_WORDLENGTH_8B;
 800103e:	4b0e      	ldr	r3, [pc, #56]	; (8001078 <MX_USART1_UART_Init+0x4c>)
 8001040:	2200      	movs	r2, #0
 8001042:	609a      	str	r2, [r3, #8]
  huart1.Init.StopBits = UART_STOPBITS_1;
 8001044:	4b0c      	ldr	r3, [pc, #48]	; (8001078 <MX_USART1_UART_Init+0x4c>)
 8001046:	2200      	movs	r2, #0
 8001048:	60da      	str	r2, [r3, #12]
  huart1.Init.Parity = UART_PARITY_NONE;
 800104a:	4b0b      	ldr	r3, [pc, #44]	; (8001078 <MX_USART1_UART_Init+0x4c>)
 800104c:	2200      	movs	r2, #0
 800104e:	611a      	str	r2, [r3, #16]
  huart1.Init.Mode = UART_MODE_RX;
 8001050:	4b09      	ldr	r3, [pc, #36]	; (8001078 <MX_USART1_UART_Init+0x4c>)
 8001052:	2204      	movs	r2, #4
 8001054:	615a      	str	r2, [r3, #20]
  huart1.Init.HwFlowCtl = UART_HWCONTROL_NONE;
 8001056:	4b08      	ldr	r3, [pc, #32]	; (8001078 <MX_USART1_UART_Init+0x4c>)
 8001058:	2200      	movs	r2, #0
 800105a:	619a      	str	r2, [r3, #24]
  huart1.Init.OverSampling = UART_OVERSAMPLING_16;
 800105c:	4b06      	ldr	r3, [pc, #24]	; (8001078 <MX_USART1_UART_Init+0x4c>)
 800105e:	2200      	movs	r2, #0
 8001060:	61da      	str	r2, [r3, #28]
  if (HAL_UART_Init(&huart1) != HAL_OK)
 8001062:	4805      	ldr	r0, [pc, #20]	; (8001078 <MX_USART1_UART_Init+0x4c>)
 8001064:	f001 fb8c 	bl	8002780 <HAL_UART_Init>
 8001068:	4603      	mov	r3, r0
 800106a:	2b00      	cmp	r3, #0
 800106c:	d001      	beq.n	8001072 <MX_USART1_UART_Init+0x46>
  {
    Error_Handler();
 800106e:	f000 f883 	bl	8001178 <Error_Handler>
  }
  /* USER CODE BEGIN USART1_Init 2 */

  /* USER CODE END USART1_Init 2 */

}
 8001072:	bf00      	nop
 8001074:	bd80      	pop	{r7, pc}
 8001076:	bf00      	nop
 8001078:	2000025c 	.word	0x2000025c
 800107c:	40011000 	.word	0x40011000

08001080 <MX_GPIO_Init>:
  * @brief GPIO Initialization Function
  * @param None
  * @retval None
  */
static void MX_GPIO_Init(void)
{
 8001080:	b580      	push	{r7, lr}
 8001082:	b088      	sub	sp, #32
 8001084:	af00      	add	r7, sp, #0
  GPIO_InitTypeDef GPIO_InitStruct = {0};
 8001086:	f107 030c 	add.w	r3, r7, #12
 800108a:	2200      	movs	r2, #0
 800108c:	601a      	str	r2, [r3, #0]
 800108e:	605a      	str	r2, [r3, #4]
 8001090:	609a      	str	r2, [r3, #8]
 8001092:	60da      	str	r2, [r3, #12]
 8001094:	611a      	str	r2, [r3, #16]

  /* GPIO Ports Clock Enable */
  __HAL_RCC_GPIOC_CLK_ENABLE();
 8001096:	2300      	movs	r3, #0
 8001098:	60bb      	str	r3, [r7, #8]
 800109a:	4b33      	ldr	r3, [pc, #204]	; (8001168 <MX_GPIO_Init+0xe8>)
 800109c:	6b1b      	ldr	r3, [r3, #48]	; 0x30
 800109e:	4a32      	ldr	r2, [pc, #200]	; (8001168 <MX_GPIO_Init+0xe8>)
 80010a0:	f043 0304 	orr.w	r3, r3, #4
 80010a4:	6313      	str	r3, [r2, #48]	; 0x30
 80010a6:	4b30      	ldr	r3, [pc, #192]	; (8001168 <MX_GPIO_Init+0xe8>)
 80010a8:	6b1b      	ldr	r3, [r3, #48]	; 0x30
 80010aa:	f003 0304 	and.w	r3, r3, #4
 80010ae:	60bb      	str	r3, [r7, #8]
 80010b0:	68bb      	ldr	r3, [r7, #8]
  __HAL_RCC_GPIOA_CLK_ENABLE();
 80010b2:	2300      	movs	r3, #0
 80010b4:	607b      	str	r3, [r7, #4]
 80010b6:	4b2c      	ldr	r3, [pc, #176]	; (8001168 <MX_GPIO_Init+0xe8>)
 80010b8:	6b1b      	ldr	r3, [r3, #48]	; 0x30
 80010ba:	4a2b      	ldr	r2, [pc, #172]	; (8001168 <MX_GPIO_Init+0xe8>)
 80010bc:	f043 0301 	orr.w	r3, r3, #1
 80010c0:	6313      	str	r3, [r2, #48]	; 0x30
 80010c2:	4b29      	ldr	r3, [pc, #164]	; (8001168 <MX_GPIO_Init+0xe8>)
 80010c4:	6b1b      	ldr	r3, [r3, #48]	; 0x30
 80010c6:	f003 0301 	and.w	r3, r3, #1
 80010ca:	607b      	str	r3, [r7, #4]
 80010cc:	687b      	ldr	r3, [r7, #4]
  __HAL_RCC_GPIOB_CLK_ENABLE();
 80010ce:	2300      	movs	r3, #0
 80010d0:	603b      	str	r3, [r7, #0]
 80010d2:	4b25      	ldr	r3, [pc, #148]	; (8001168 <MX_GPIO_Init+0xe8>)
 80010d4:	6b1b      	ldr	r3, [r3, #48]	; 0x30
 80010d6:	4a24      	ldr	r2, [pc, #144]	; (8001168 <MX_GPIO_Init+0xe8>)
 80010d8:	f043 0302 	orr.w	r3, r3, #2
 80010dc:	6313      	str	r3, [r2, #48]	; 0x30
 80010de:	4b22      	ldr	r3, [pc, #136]	; (8001168 <MX_GPIO_Init+0xe8>)
 80010e0:	6b1b      	ldr	r3, [r3, #48]	; 0x30
 80010e2:	f003 0302 	and.w	r3, r3, #2
 80010e6:	603b      	str	r3, [r7, #0]
 80010e8:	683b      	ldr	r3, [r7, #0]

  /*Configure GPIO pin Output Level */
  HAL_GPIO_WritePin(GPIOC, GPIO_PIN_1, GPIO_PIN_RESET);
 80010ea:	2200      	movs	r2, #0
 80010ec:	2102      	movs	r1, #2
 80010ee:	481f      	ldr	r0, [pc, #124]	; (800116c <MX_GPIO_Init+0xec>)
 80010f0:	f000 fef0 	bl	8001ed4 <HAL_GPIO_WritePin>

  /*Configure GPIO pin Output Level */
  HAL_GPIO_WritePin(GPIOA, GPIO_PIN_0|GPIO_PIN_1|GPIO_PIN_10, GPIO_PIN_RESET);
 80010f4:	2200      	movs	r2, #0
 80010f6:	f240 4103 	movw	r1, #1027	; 0x403
 80010fa:	481d      	ldr	r0, [pc, #116]	; (8001170 <MX_GPIO_Init+0xf0>)
 80010fc:	f000 feea 	bl	8001ed4 <HAL_GPIO_WritePin>

  /*Configure GPIO pin Output Level */
  HAL_GPIO_WritePin(GPIOB, GPIO_PIN_4|GPIO_PIN_5, GPIO_PIN_RESET);
 8001100:	2200      	movs	r2, #0
 8001102:	2130      	movs	r1, #48	; 0x30
 8001104:	481b      	ldr	r0, [pc, #108]	; (8001174 <MX_GPIO_Init+0xf4>)
 8001106:	f000 fee5 	bl	8001ed4 <HAL_GPIO_WritePin>

  /*Configure GPIO pin : PC1 */
  GPIO_InitStruct.Pin = GPIO_PIN_1;
 800110a:	2302      	movs	r3, #2
 800110c:	60fb      	str	r3, [r7, #12]
  GPIO_InitStruct.Mode = GPIO_MODE_OUTPUT_PP;
 800110e:	2301      	movs	r3, #1
 8001110:	613b      	str	r3, [r7, #16]
  GPIO_InitStruct.Pull = GPIO_NOPULL;
 8001112:	2300      	movs	r3, #0
 8001114:	617b      	str	r3, [r7, #20]
  GPIO_InitStruct.Speed = GPIO_SPEED_FREQ_LOW;
 8001116:	2300      	movs	r3, #0
 8001118:	61bb      	str	r3, [r7, #24]
  HAL_GPIO_Init(GPIOC, &GPIO_InitStruct);
 800111a:	f107 030c 	add.w	r3, r7, #12
 800111e:	4619      	mov	r1, r3
 8001120:	4812      	ldr	r0, [pc, #72]	; (800116c <MX_GPIO_Init+0xec>)
 8001122:	f000 fd55 	bl	8001bd0 <HAL_GPIO_Init>

  /*Configure GPIO pins : PA0 PA1 PA10 */
  GPIO_InitStruct.Pin = GPIO_PIN_0|GPIO_PIN_1|GPIO_PIN_10;
 8001126:	f240 4303 	movw	r3, #1027	; 0x403
 800112a:	60fb      	str	r3, [r7, #12]
  GPIO_InitStruct.Mode = GPIO_MODE_OUTPUT_PP;
 800112c:	2301      	movs	r3, #1
 800112e:	613b      	str	r3, [r7, #16]
  GPIO_InitStruct.Pull = GPIO_NOPULL;
 8001130:	2300      	movs	r3, #0
 8001132:	617b      	str	r3, [r7, #20]
  GPIO_InitStruct.Speed = GPIO_SPEED_FREQ_LOW;
 8001134:	2300      	movs	r3, #0
 8001136:	61bb      	str	r3, [r7, #24]
  HAL_GPIO_Init(GPIOA, &GPIO_InitStruct);
 8001138:	f107 030c 	add.w	r3, r7, #12
 800113c:	4619      	mov	r1, r3
 800113e:	480c      	ldr	r0, [pc, #48]	; (8001170 <MX_GPIO_Init+0xf0>)
 8001140:	f000 fd46 	bl	8001bd0 <HAL_GPIO_Init>

  /*Configure GPIO pins : PB4 PB5 */
  GPIO_InitStruct.Pin = GPIO_PIN_4|GPIO_PIN_5;
 8001144:	2330      	movs	r3, #48	; 0x30
 8001146:	60fb      	str	r3, [r7, #12]
  GPIO_InitStruct.Mode = GPIO_MODE_OUTPUT_PP;
 8001148:	2301      	movs	r3, #1
 800114a:	613b      	str	r3, [r7, #16]
  GPIO_InitStruct.Pull = GPIO_NOPULL;
 800114c:	2300      	movs	r3, #0
 800114e:	617b      	str	r3, [r7, #20]
  GPIO_InitStruct.Speed = GPIO_SPEED_FREQ_LOW;
 8001150:	2300      	movs	r3, #0
 8001152:	61bb      	str	r3, [r7, #24]
  HAL_GPIO_Init(GPIOB, &GPIO_InitStruct);
 8001154:	f107 030c 	add.w	r3, r7, #12
 8001158:	4619      	mov	r1, r3
 800115a:	4806      	ldr	r0, [pc, #24]	; (8001174 <MX_GPIO_Init+0xf4>)
 800115c:	f000 fd38 	bl	8001bd0 <HAL_GPIO_Init>

}
 8001160:	bf00      	nop
 8001162:	3720      	adds	r7, #32
 8001164:	46bd      	mov	sp, r7
 8001166:	bd80      	pop	{r7, pc}
 8001168:	40023800 	.word	0x40023800
 800116c:	40020800 	.word	0x40020800
 8001170:	40020000 	.word	0x40020000
 8001174:	40020400 	.word	0x40020400

08001178 <Error_Handler>:
/**
  * @brief  This function is executed in case of error occurrence.
  * @retval None
  */
void Error_Handler(void)
{
 8001178:	b480      	push	{r7}
 800117a:	af00      	add	r7, sp, #0
  /* USER CODE BEGIN Error_Handler_Debug */
  /* User can add his own implementation to report the HAL error return state */

  /* USER CODE END Error_Handler_Debug */
}
 800117c:	bf00      	nop
 800117e:	46bd      	mov	sp, r7
 8001180:	f85d 7b04 	ldr.w	r7, [sp], #4
 8001184:	4770      	bx	lr
	...

08001188 <HAL_MspInit>:
/* USER CODE END 0 */
/**
  * Initializes the Global MSP.
  */
void HAL_MspInit(void)
{
 8001188:	b480      	push	{r7}
 800118a:	b083      	sub	sp, #12
 800118c:	af00      	add	r7, sp, #0
  /* USER CODE BEGIN MspInit 0 */

  /* USER CODE END MspInit 0 */

  __HAL_RCC_SYSCFG_CLK_ENABLE();
 800118e:	2300      	movs	r3, #0
 8001190:	607b      	str	r3, [r7, #4]
 8001192:	4b10      	ldr	r3, [pc, #64]	; (80011d4 <HAL_MspInit+0x4c>)
 8001194:	6c5b      	ldr	r3, [r3, #68]	; 0x44
 8001196:	4a0f      	ldr	r2, [pc, #60]	; (80011d4 <HAL_MspInit+0x4c>)
 8001198:	f443 4380 	orr.w	r3, r3, #16384	; 0x4000
 800119c:	6453      	str	r3, [r2, #68]	; 0x44
 800119e:	4b0d      	ldr	r3, [pc, #52]	; (80011d4 <HAL_MspInit+0x4c>)
 80011a0:	6c5b      	ldr	r3, [r3, #68]	; 0x44
 80011a2:	f403 4380 	and.w	r3, r3, #16384	; 0x4000
 80011a6:	607b      	str	r3, [r7, #4]
 80011a8:	687b      	ldr	r3, [r7, #4]
  __HAL_RCC_PWR_CLK_ENABLE();
 80011aa:	2300      	movs	r3, #0
 80011ac:	603b      	str	r3, [r7, #0]
 80011ae:	4b09      	ldr	r3, [pc, #36]	; (80011d4 <HAL_MspInit+0x4c>)
 80011b0:	6c1b      	ldr	r3, [r3, #64]	; 0x40
 80011b2:	4a08      	ldr	r2, [pc, #32]	; (80011d4 <HAL_MspInit+0x4c>)
 80011b4:	f043 5380 	orr.w	r3, r3, #268435456	; 0x10000000
 80011b8:	6413      	str	r3, [r2, #64]	; 0x40
 80011ba:	4b06      	ldr	r3, [pc, #24]	; (80011d4 <HAL_MspInit+0x4c>)
 80011bc:	6c1b      	ldr	r3, [r3, #64]	; 0x40
 80011be:	f003 5380 	and.w	r3, r3, #268435456	; 0x10000000
 80011c2:	603b      	str	r3, [r7, #0]
 80011c4:	683b      	ldr	r3, [r7, #0]
  /* System interrupt init*/

  /* USER CODE BEGIN MspInit 1 */

  /* USER CODE END MspInit 1 */
}
 80011c6:	bf00      	nop
 80011c8:	370c      	adds	r7, #12
 80011ca:	46bd      	mov	sp, r7
 80011cc:	f85d 7b04 	ldr.w	r7, [sp], #4
 80011d0:	4770      	bx	lr
 80011d2:	bf00      	nop
 80011d4:	40023800 	.word	0x40023800

080011d8 <HAL_ADC_MspInit>:
* This function configures the hardware resources used in this example
* @param hadc: ADC handle pointer
* @retval None
*/
void HAL_ADC_MspInit(ADC_HandleTypeDef* hadc)
{
 80011d8:	b580      	push	{r7, lr}
 80011da:	b08a      	sub	sp, #40	; 0x28
 80011dc:	af00      	add	r7, sp, #0
 80011de:	6078      	str	r0, [r7, #4]
  GPIO_InitTypeDef GPIO_InitStruct = {0};
 80011e0:	f107 0314 	add.w	r3, r7, #20
 80011e4:	2200      	movs	r2, #0
 80011e6:	601a      	str	r2, [r3, #0]
 80011e8:	605a      	str	r2, [r3, #4]
 80011ea:	609a      	str	r2, [r3, #8]
 80011ec:	60da      	str	r2, [r3, #12]
 80011ee:	611a      	str	r2, [r3, #16]
  if(hadc->Instance==ADC1)
 80011f0:	687b      	ldr	r3, [r7, #4]
 80011f2:	681b      	ldr	r3, [r3, #0]
 80011f4:	4a24      	ldr	r2, [pc, #144]	; (8001288 <HAL_ADC_MspInit+0xb0>)
 80011f6:	4293      	cmp	r3, r2
 80011f8:	d141      	bne.n	800127e <HAL_ADC_MspInit+0xa6>
  {
  /* USER CODE BEGIN ADC1_MspInit 0 */

  /* USER CODE END ADC1_MspInit 0 */
    /* Peripheral clock enable */
    __HAL_RCC_ADC1_CLK_ENABLE();
 80011fa:	2300      	movs	r3, #0
 80011fc:	613b      	str	r3, [r7, #16]
 80011fe:	4b23      	ldr	r3, [pc, #140]	; (800128c <HAL_ADC_MspInit+0xb4>)
 8001200:	6c5b      	ldr	r3, [r3, #68]	; 0x44
 8001202:	4a22      	ldr	r2, [pc, #136]	; (800128c <HAL_ADC_MspInit+0xb4>)
 8001204:	f443 7380 	orr.w	r3, r3, #256	; 0x100
 8001208:	6453      	str	r3, [r2, #68]	; 0x44
 800120a:	4b20      	ldr	r3, [pc, #128]	; (800128c <HAL_ADC_MspInit+0xb4>)
 800120c:	6c5b      	ldr	r3, [r3, #68]	; 0x44
 800120e:	f403 7380 	and.w	r3, r3, #256	; 0x100
 8001212:	613b      	str	r3, [r7, #16]
 8001214:	693b      	ldr	r3, [r7, #16]
  
    __HAL_RCC_GPIOA_CLK_ENABLE();
 8001216:	2300      	movs	r3, #0
 8001218:	60fb      	str	r3, [r7, #12]
 800121a:	4b1c      	ldr	r3, [pc, #112]	; (800128c <HAL_ADC_MspInit+0xb4>)
 800121c:	6b1b      	ldr	r3, [r3, #48]	; 0x30
 800121e:	4a1b      	ldr	r2, [pc, #108]	; (800128c <HAL_ADC_MspInit+0xb4>)
 8001220:	f043 0301 	orr.w	r3, r3, #1
 8001224:	6313      	str	r3, [r2, #48]	; 0x30
 8001226:	4b19      	ldr	r3, [pc, #100]	; (800128c <HAL_ADC_MspInit+0xb4>)
 8001228:	6b1b      	ldr	r3, [r3, #48]	; 0x30
 800122a:	f003 0301 	and.w	r3, r3, #1
 800122e:	60fb      	str	r3, [r7, #12]
 8001230:	68fb      	ldr	r3, [r7, #12]
    __HAL_RCC_GPIOB_CLK_ENABLE();
 8001232:	2300      	movs	r3, #0
 8001234:	60bb      	str	r3, [r7, #8]
 8001236:	4b15      	ldr	r3, [pc, #84]	; (800128c <HAL_ADC_MspInit+0xb4>)
 8001238:	6b1b      	ldr	r3, [r3, #48]	; 0x30
 800123a:	4a14      	ldr	r2, [pc, #80]	; (800128c <HAL_ADC_MspInit+0xb4>)
 800123c:	f043 0302 	orr.w	r3, r3, #2
 8001240:	6313      	str	r3, [r2, #48]	; 0x30
 8001242:	4b12      	ldr	r3, [pc, #72]	; (800128c <HAL_ADC_MspInit+0xb4>)
 8001244:	6b1b      	ldr	r3, [r3, #48]	; 0x30
 8001246:	f003 0302 	and.w	r3, r3, #2
 800124a:	60bb      	str	r3, [r7, #8]
 800124c:	68bb      	ldr	r3, [r7, #8]
    /**ADC1 GPIO Configuration    
    PA6     ------> ADC1_IN6
    PA7     ------> ADC1_IN7
    PB0     ------> ADC1_IN8 
    */
    GPIO_InitStruct.Pin = GPIO_PIN_6|GPIO_PIN_7;
 800124e:	23c0      	movs	r3, #192	; 0xc0
 8001250:	617b      	str	r3, [r7, #20]
    GPIO_InitStruct.Mode = GPIO_MODE_ANALOG;
 8001252:	2303      	movs	r3, #3
 8001254:	61bb      	str	r3, [r7, #24]
    GPIO_InitStruct.Pull = GPIO_NOPULL;
 8001256:	2300      	movs	r3, #0
 8001258:	61fb      	str	r3, [r7, #28]
    HAL_GPIO_Init(GPIOA, &GPIO_InitStruct);
 800125a:	f107 0314 	add.w	r3, r7, #20
 800125e:	4619      	mov	r1, r3
 8001260:	480b      	ldr	r0, [pc, #44]	; (8001290 <HAL_ADC_MspInit+0xb8>)
 8001262:	f000 fcb5 	bl	8001bd0 <HAL_GPIO_Init>

    GPIO_InitStruct.Pin = GPIO_PIN_0;
 8001266:	2301      	movs	r3, #1
 8001268:	617b      	str	r3, [r7, #20]
    GPIO_InitStruct.Mode = GPIO_MODE_ANALOG;
 800126a:	2303      	movs	r3, #3
 800126c:	61bb      	str	r3, [r7, #24]
    GPIO_InitStruct.Pull = GPIO_NOPULL;
 800126e:	2300      	movs	r3, #0
 8001270:	61fb      	str	r3, [r7, #28]
    HAL_GPIO_Init(GPIOB, &GPIO_InitStruct);
 8001272:	f107 0314 	add.w	r3, r7, #20
 8001276:	4619      	mov	r1, r3
 8001278:	4806      	ldr	r0, [pc, #24]	; (8001294 <HAL_ADC_MspInit+0xbc>)
 800127a:	f000 fca9 	bl	8001bd0 <HAL_GPIO_Init>
  /* USER CODE BEGIN ADC1_MspInit 1 */

  /* USER CODE END ADC1_MspInit 1 */
  }

}
 800127e:	bf00      	nop
 8001280:	3728      	adds	r7, #40	; 0x28
 8001282:	46bd      	mov	sp, r7
 8001284:	bd80      	pop	{r7, pc}
 8001286:	bf00      	nop
 8001288:	40012000 	.word	0x40012000
 800128c:	40023800 	.word	0x40023800
 8001290:	40020000 	.word	0x40020000
 8001294:	40020400 	.word	0x40020400

08001298 <HAL_UART_MspInit>:
* This function configures the hardware resources used in this example
* @param huart: UART handle pointer
* @retval None
*/
void HAL_UART_MspInit(UART_HandleTypeDef* huart)
{
 8001298:	b580      	push	{r7, lr}
 800129a:	b08a      	sub	sp, #40	; 0x28
 800129c:	af00      	add	r7, sp, #0
 800129e:	6078      	str	r0, [r7, #4]
  GPIO_InitTypeDef GPIO_InitStruct = {0};
 80012a0:	f107 0314 	add.w	r3, r7, #20
 80012a4:	2200      	movs	r2, #0
 80012a6:	601a      	str	r2, [r3, #0]
 80012a8:	605a      	str	r2, [r3, #4]
 80012aa:	609a      	str	r2, [r3, #8]
 80012ac:	60da      	str	r2, [r3, #12]
 80012ae:	611a      	str	r2, [r3, #16]
  if(huart->Instance==USART1)
 80012b0:	687b      	ldr	r3, [r7, #4]
 80012b2:	681b      	ldr	r3, [r3, #0]
 80012b4:	4a19      	ldr	r2, [pc, #100]	; (800131c <HAL_UART_MspInit+0x84>)
 80012b6:	4293      	cmp	r3, r2
 80012b8:	d12b      	bne.n	8001312 <HAL_UART_MspInit+0x7a>
  {
  /* USER CODE BEGIN USART1_MspInit 0 */

  /* USER CODE END USART1_MspInit 0 */
    /* Peripheral clock enable */
    __HAL_RCC_USART1_CLK_ENABLE();
 80012ba:	2300      	movs	r3, #0
 80012bc:	613b      	str	r3, [r7, #16]
 80012be:	4b18      	ldr	r3, [pc, #96]	; (8001320 <HAL_UART_MspInit+0x88>)
 80012c0:	6c5b      	ldr	r3, [r3, #68]	; 0x44
 80012c2:	4a17      	ldr	r2, [pc, #92]	; (8001320 <HAL_UART_MspInit+0x88>)
 80012c4:	f043 0310 	orr.w	r3, r3, #16
 80012c8:	6453      	str	r3, [r2, #68]	; 0x44
 80012ca:	4b15      	ldr	r3, [pc, #84]	; (8001320 <HAL_UART_MspInit+0x88>)
 80012cc:	6c5b      	ldr	r3, [r3, #68]	; 0x44
 80012ce:	f003 0310 	and.w	r3, r3, #16
 80012d2:	613b      	str	r3, [r7, #16]
 80012d4:	693b      	ldr	r3, [r7, #16]
  
    __HAL_RCC_GPIOB_CLK_ENABLE();
 80012d6:	2300      	movs	r3, #0
 80012d8:	60fb      	str	r3, [r7, #12]
 80012da:	4b11      	ldr	r3, [pc, #68]	; (8001320 <HAL_UART_MspInit+0x88>)
 80012dc:	6b1b      	ldr	r3, [r3, #48]	; 0x30
 80012de:	4a10      	ldr	r2, [pc, #64]	; (8001320 <HAL_UART_MspInit+0x88>)
 80012e0:	f043 0302 	orr.w	r3, r3, #2
 80012e4:	6313      	str	r3, [r2, #48]	; 0x30
 80012e6:	4b0e      	ldr	r3, [pc, #56]	; (8001320 <HAL_UART_MspInit+0x88>)
 80012e8:	6b1b      	ldr	r3, [r3, #48]	; 0x30
 80012ea:	f003 0302 	and.w	r3, r3, #2
 80012ee:	60fb      	str	r3, [r7, #12]
 80012f0:	68fb      	ldr	r3, [r7, #12]
    /**USART1 GPIO Configuration    
    PB6     ------> USART1_TX
    PB7     ------> USART1_RX 
    */
    GPIO_InitStruct.Pin = GPIO_PIN_6|GPIO_PIN_7;
 80012f2:	23c0      	movs	r3, #192	; 0xc0
 80012f4:	617b      	str	r3, [r7, #20]
    GPIO_InitStruct.Mode = GPIO_MODE_AF_PP;
 80012f6:	2302      	movs	r3, #2
 80012f8:	61bb      	str	r3, [r7, #24]
    GPIO_InitStruct.Pull = GPIO_PULLUP;
 80012fa:	2301      	movs	r3, #1
 80012fc:	61fb      	str	r3, [r7, #28]
    GPIO_InitStruct.Speed = GPIO_SPEED_FREQ_VERY_HIGH;
 80012fe:	2303      	movs	r3, #3
 8001300:	623b      	str	r3, [r7, #32]
    GPIO_InitStruct.Alternate = GPIO_AF7_USART1;
 8001302:	2307      	movs	r3, #7
 8001304:	627b      	str	r3, [r7, #36]	; 0x24
    HAL_GPIO_Init(GPIOB, &GPIO_InitStruct);
 8001306:	f107 0314 	add.w	r3, r7, #20
 800130a:	4619      	mov	r1, r3
 800130c:	4805      	ldr	r0, [pc, #20]	; (8001324 <HAL_UART_MspInit+0x8c>)
 800130e:	f000 fc5f 	bl	8001bd0 <HAL_GPIO_Init>
  /* USER CODE BEGIN USART1_MspInit 1 */

  /* USER CODE END USART1_MspInit 1 */
  }

}
 8001312:	bf00      	nop
 8001314:	3728      	adds	r7, #40	; 0x28
 8001316:	46bd      	mov	sp, r7
 8001318:	bd80      	pop	{r7, pc}
 800131a:	bf00      	nop
 800131c:	40011000 	.word	0x40011000
 8001320:	40023800 	.word	0x40023800
 8001324:	40020400 	.word	0x40020400

08001328 <NMI_Handler>:
/******************************************************************************/
/**
  * @brief This function handles Non maskable interrupt.
  */
void NMI_Handler(void)
{
 8001328:	b480      	push	{r7}
 800132a:	af00      	add	r7, sp, #0

  /* USER CODE END NonMaskableInt_IRQn 0 */
  /* USER CODE BEGIN NonMaskableInt_IRQn 1 */

  /* USER CODE END NonMaskableInt_IRQn 1 */
}
 800132c:	bf00      	nop
 800132e:	46bd      	mov	sp, r7
 8001330:	f85d 7b04 	ldr.w	r7, [sp], #4
 8001334:	4770      	bx	lr

08001336 <HardFault_Handler>:

/**
  * @brief This function handles Hard fault interrupt.
  */
void HardFault_Handler(void)
{
 8001336:	b480      	push	{r7}
 8001338:	af00      	add	r7, sp, #0
  /* USER CODE BEGIN HardFault_IRQn 0 */

  /* USER CODE END HardFault_IRQn 0 */
  while (1)
 800133a:	e7fe      	b.n	800133a <HardFault_Handler+0x4>

0800133c <MemManage_Handler>:

/**
  * @brief This function handles Memory management fault.
  */
void MemManage_Handler(void)
{
 800133c:	b480      	push	{r7}
 800133e:	af00      	add	r7, sp, #0
  /* USER CODE BEGIN MemoryManagement_IRQn 0 */

  /* USER CODE END MemoryManagement_IRQn 0 */
  while (1)
 8001340:	e7fe      	b.n	8001340 <MemManage_Handler+0x4>

08001342 <BusFault_Handler>:

/**
  * @brief This function handles Pre-fetch fault, memory access fault.
  */
void BusFault_Handler(void)
{
 8001342:	b480      	push	{r7}
 8001344:	af00      	add	r7, sp, #0
  /* USER CODE BEGIN BusFault_IRQn 0 */

  /* USER CODE END BusFault_IRQn 0 */
  while (1)
 8001346:	e7fe      	b.n	8001346 <BusFault_Handler+0x4>

08001348 <UsageFault_Handler>:

/**
  * @brief This function handles Undefined instruction or illegal state.
  */
void UsageFault_Handler(void)
{
 8001348:	b480      	push	{r7}
 800134a:	af00      	add	r7, sp, #0
  /* USER CODE BEGIN UsageFault_IRQn 0 */

  /* USER CODE END UsageFault_IRQn 0 */
  while (1)
 800134c:	e7fe      	b.n	800134c <UsageFault_Handler+0x4>

0800134e <SVC_Handler>:

/**
  * @brief This function handles System service call via SWI instruction.
  */
void SVC_Handler(void)
{
 800134e:	b480      	push	{r7}
 8001350:	af00      	add	r7, sp, #0

  /* USER CODE END SVCall_IRQn 0 */
  /* USER CODE BEGIN SVCall_IRQn 1 */

  /* USER CODE END SVCall_IRQn 1 */
}
 8001352:	bf00      	nop
 8001354:	46bd      	mov	sp, r7
 8001356:	f85d 7b04 	ldr.w	r7, [sp], #4
 800135a:	4770      	bx	lr

0800135c <DebugMon_Handler>:

/**
  * @brief This function handles Debug monitor.
  */
void DebugMon_Handler(void)
{
 800135c:	b480      	push	{r7}
 800135e:	af00      	add	r7, sp, #0

  /* USER CODE END DebugMonitor_IRQn 0 */
  /* USER CODE BEGIN DebugMonitor_IRQn 1 */

  /* USER CODE END DebugMonitor_IRQn 1 */
}
 8001360:	bf00      	nop
 8001362:	46bd      	mov	sp, r7
 8001364:	f85d 7b04 	ldr.w	r7, [sp], #4
 8001368:	4770      	bx	lr

0800136a <PendSV_Handler>:

/**
  * @brief This function handles Pendable request for system service.
  */
void PendSV_Handler(void)
{
 800136a:	b480      	push	{r7}
 800136c:	af00      	add	r7, sp, #0

  /* USER CODE END PendSV_IRQn 0 */
  /* USER CODE BEGIN PendSV_IRQn 1 */

  /* USER CODE END PendSV_IRQn 1 */
}
 800136e:	bf00      	nop
 8001370:	46bd      	mov	sp, r7
 8001372:	f85d 7b04 	ldr.w	r7, [sp], #4
 8001376:	4770      	bx	lr

08001378 <SysTick_Handler>:

/**
  * @brief This function handles System tick timer.
  */
void SysTick_Handler(void)
{
 8001378:	b580      	push	{r7, lr}
 800137a:	af00      	add	r7, sp, #0
  /* USER CODE BEGIN SysTick_IRQn 0 */

  /* USER CODE END SysTick_IRQn 0 */
  HAL_IncTick();
 800137c:	f000 f8c0 	bl	8001500 <HAL_IncTick>
  /* USER CODE BEGIN SysTick_IRQn 1 */

  /* USER CODE END SysTick_IRQn 1 */
}
 8001380:	bf00      	nop
 8001382:	bd80      	pop	{r7, pc}

08001384 <_sbrk>:
/**
 _sbrk
 Increase program data space. Malloc and related functions depend on this
**/
caddr_t _sbrk(int incr)
{
 8001384:	b580      	push	{r7, lr}
 8001386:	b084      	sub	sp, #16
 8001388:	af00      	add	r7, sp, #0
 800138a:	6078      	str	r0, [r7, #4]
	extern char end asm("end");
	static char *heap_end;
	char *prev_heap_end;

	if (heap_end == 0)
 800138c:	4b11      	ldr	r3, [pc, #68]	; (80013d4 <_sbrk+0x50>)
 800138e:	681b      	ldr	r3, [r3, #0]
 8001390:	2b00      	cmp	r3, #0
 8001392:	d102      	bne.n	800139a <_sbrk+0x16>
		heap_end = &end;
 8001394:	4b0f      	ldr	r3, [pc, #60]	; (80013d4 <_sbrk+0x50>)
 8001396:	4a10      	ldr	r2, [pc, #64]	; (80013d8 <_sbrk+0x54>)
 8001398:	601a      	str	r2, [r3, #0]

	prev_heap_end = heap_end;
 800139a:	4b0e      	ldr	r3, [pc, #56]	; (80013d4 <_sbrk+0x50>)
 800139c:	681b      	ldr	r3, [r3, #0]
 800139e:	60fb      	str	r3, [r7, #12]
	if (heap_end + incr > stack_ptr)
 80013a0:	4b0c      	ldr	r3, [pc, #48]	; (80013d4 <_sbrk+0x50>)
 80013a2:	681a      	ldr	r2, [r3, #0]
 80013a4:	687b      	ldr	r3, [r7, #4]
 80013a6:	4413      	add	r3, r2
 80013a8:	466a      	mov	r2, sp
 80013aa:	4293      	cmp	r3, r2
 80013ac:	d907      	bls.n	80013be <_sbrk+0x3a>
	{
		errno = ENOMEM;
 80013ae:	f001 fea1 	bl	80030f4 <__errno>
 80013b2:	4602      	mov	r2, r0
 80013b4:	230c      	movs	r3, #12
 80013b6:	6013      	str	r3, [r2, #0]
		return (caddr_t) -1;
 80013b8:	f04f 33ff 	mov.w	r3, #4294967295
 80013bc:	e006      	b.n	80013cc <_sbrk+0x48>
	}

	heap_end += incr;
 80013be:	4b05      	ldr	r3, [pc, #20]	; (80013d4 <_sbrk+0x50>)
 80013c0:	681a      	ldr	r2, [r3, #0]
 80013c2:	687b      	ldr	r3, [r7, #4]
 80013c4:	4413      	add	r3, r2
 80013c6:	4a03      	ldr	r2, [pc, #12]	; (80013d4 <_sbrk+0x50>)
 80013c8:	6013      	str	r3, [r2, #0]

	return (caddr_t) prev_heap_end;
 80013ca:	68fb      	ldr	r3, [r7, #12]
}
 80013cc:	4618      	mov	r0, r3
 80013ce:	3710      	adds	r7, #16
 80013d0:	46bd      	mov	sp, r7
 80013d2:	bd80      	pop	{r7, pc}
 80013d4:	20000208 	.word	0x20000208
 80013d8:	200002a8 	.word	0x200002a8

080013dc <SystemInit>:
  *         configuration.
  * @param  None
  * @retval None
  */
void SystemInit(void)
{
 80013dc:	b480      	push	{r7}
 80013de:	af00      	add	r7, sp, #0
  /* FPU settings ------------------------------------------------------------*/
  #if (__FPU_PRESENT == 1) && (__FPU_USED == 1)
    SCB->CPACR |= ((3UL << 10*2)|(3UL << 11*2));  /* set CP10 and CP11 Full Access */
 80013e0:	4b08      	ldr	r3, [pc, #32]	; (8001404 <SystemInit+0x28>)
 80013e2:	f8d3 3088 	ldr.w	r3, [r3, #136]	; 0x88
 80013e6:	4a07      	ldr	r2, [pc, #28]	; (8001404 <SystemInit+0x28>)
 80013e8:	f443 0370 	orr.w	r3, r3, #15728640	; 0xf00000
 80013ec:	f8c2 3088 	str.w	r3, [r2, #136]	; 0x88

  /* Configure the Vector Table location add offset address ------------------*/
#ifdef VECT_TAB_SRAM
  SCB->VTOR = SRAM_BASE | VECT_TAB_OFFSET; /* Vector Table Relocation in Internal SRAM */
#else
  SCB->VTOR = FLASH_BASE | VECT_TAB_OFFSET; /* Vector Table Relocation in Internal FLASH */
 80013f0:	4b04      	ldr	r3, [pc, #16]	; (8001404 <SystemInit+0x28>)
 80013f2:	f04f 6200 	mov.w	r2, #134217728	; 0x8000000
 80013f6:	609a      	str	r2, [r3, #8]
#endif
}
 80013f8:	bf00      	nop
 80013fa:	46bd      	mov	sp, r7
 80013fc:	f85d 7b04 	ldr.w	r7, [sp], #4
 8001400:	4770      	bx	lr
 8001402:	bf00      	nop
 8001404:	e000ed00 	.word	0xe000ed00

08001408 <Reset_Handler>:

    .section  .text.Reset_Handler
  .weak  Reset_Handler
  .type  Reset_Handler, %function
Reset_Handler:  
  ldr   sp, =_estack    		 /* set stack pointer */
 8001408:	f8df d034 	ldr.w	sp, [pc, #52]	; 8001440 <LoopFillZerobss+0x14>

/* Copy the data segment initializers from flash to SRAM */  
  movs  r1, #0
 800140c:	2100      	movs	r1, #0
  b  LoopCopyDataInit
 800140e:	e003      	b.n	8001418 <LoopCopyDataInit>

08001410 <CopyDataInit>:

CopyDataInit:
  ldr  r3, =_sidata
 8001410:	4b0c      	ldr	r3, [pc, #48]	; (8001444 <LoopFillZerobss+0x18>)
  ldr  r3, [r3, r1]
 8001412:	585b      	ldr	r3, [r3, r1]
  str  r3, [r0, r1]
 8001414:	5043      	str	r3, [r0, r1]
  adds  r1, r1, #4
 8001416:	3104      	adds	r1, #4

08001418 <LoopCopyDataInit>:
    
LoopCopyDataInit:
  ldr  r0, =_sdata
 8001418:	480b      	ldr	r0, [pc, #44]	; (8001448 <LoopFillZerobss+0x1c>)
  ldr  r3, =_edata
 800141a:	4b0c      	ldr	r3, [pc, #48]	; (800144c <LoopFillZerobss+0x20>)
  adds  r2, r0, r1
 800141c:	1842      	adds	r2, r0, r1
  cmp  r2, r3
 800141e:	429a      	cmp	r2, r3
  bcc  CopyDataInit
 8001420:	d3f6      	bcc.n	8001410 <CopyDataInit>
  ldr  r2, =_sbss
 8001422:	4a0b      	ldr	r2, [pc, #44]	; (8001450 <LoopFillZerobss+0x24>)
  b  LoopFillZerobss
 8001424:	e002      	b.n	800142c <LoopFillZerobss>

08001426 <FillZerobss>:
/* Zero fill the bss segment. */  
FillZerobss:
  movs  r3, #0
 8001426:	2300      	movs	r3, #0
  str  r3, [r2], #4
 8001428:	f842 3b04 	str.w	r3, [r2], #4

0800142c <LoopFillZerobss>:
    
LoopFillZerobss:
  ldr  r3, = _ebss
 800142c:	4b09      	ldr	r3, [pc, #36]	; (8001454 <LoopFillZerobss+0x28>)
  cmp  r2, r3
 800142e:	429a      	cmp	r2, r3
  bcc  FillZerobss
 8001430:	d3f9      	bcc.n	8001426 <FillZerobss>

/* Call the clock system intitialization function.*/
  bl  SystemInit   
 8001432:	f7ff ffd3 	bl	80013dc <SystemInit>
/* Call static constructors */
    bl __libc_init_array
 8001436:	f001 fe63 	bl	8003100 <__libc_init_array>
/* Call the application's entry point.*/
  bl  main
 800143a:	f7ff fd23 	bl	8000e84 <main>
  bx  lr    
 800143e:	4770      	bx	lr
  ldr   sp, =_estack    		 /* set stack pointer */
 8001440:	20018000 	.word	0x20018000
  ldr  r3, =_sidata
 8001444:	08004e10 	.word	0x08004e10
  ldr  r0, =_sdata
 8001448:	20000000 	.word	0x20000000
  ldr  r3, =_edata
 800144c:	200001dc 	.word	0x200001dc
  ldr  r2, =_sbss
 8001450:	200001dc 	.word	0x200001dc
  ldr  r3, = _ebss
 8001454:	200002a4 	.word	0x200002a4

08001458 <ADC_IRQHandler>:
 * @retval None       
*/
    .section  .text.Default_Handler,"ax",%progbits
Default_Handler:
Infinite_Loop:
  b  Infinite_Loop
 8001458:	e7fe      	b.n	8001458 <ADC_IRQHandler>
	...

0800145c <HAL_Init>:
  *         need to ensure that the SysTick time base is always set to 1 millisecond
  *         to have correct HAL operation.
  * @retval HAL status
  */
HAL_StatusTypeDef HAL_Init(void)
{
 800145c:	b580      	push	{r7, lr}
 800145e:	af00      	add	r7, sp, #0
  /* Configure Flash prefetch, Instruction cache, Data cache */ 
#if (INSTRUCTION_CACHE_ENABLE != 0U)
  __HAL_FLASH_INSTRUCTION_CACHE_ENABLE();
 8001460:	4b0e      	ldr	r3, [pc, #56]	; (800149c <HAL_Init+0x40>)
 8001462:	681b      	ldr	r3, [r3, #0]
 8001464:	4a0d      	ldr	r2, [pc, #52]	; (800149c <HAL_Init+0x40>)
 8001466:	f443 7300 	orr.w	r3, r3, #512	; 0x200
 800146a:	6013      	str	r3, [r2, #0]
#endif /* INSTRUCTION_CACHE_ENABLE */

#if (DATA_CACHE_ENABLE != 0U)
  __HAL_FLASH_DATA_CACHE_ENABLE();
 800146c:	4b0b      	ldr	r3, [pc, #44]	; (800149c <HAL_Init+0x40>)
 800146e:	681b      	ldr	r3, [r3, #0]
 8001470:	4a0a      	ldr	r2, [pc, #40]	; (800149c <HAL_Init+0x40>)
 8001472:	f443 6380 	orr.w	r3, r3, #1024	; 0x400
 8001476:	6013      	str	r3, [r2, #0]
#endif /* DATA_CACHE_ENABLE */

#if (PREFETCH_ENABLE != 0U)
  __HAL_FLASH_PREFETCH_BUFFER_ENABLE();
 8001478:	4b08      	ldr	r3, [pc, #32]	; (800149c <HAL_Init+0x40>)
 800147a:	681b      	ldr	r3, [r3, #0]
 800147c:	4a07      	ldr	r2, [pc, #28]	; (800149c <HAL_Init+0x40>)
 800147e:	f443 7380 	orr.w	r3, r3, #256	; 0x100
 8001482:	6013      	str	r3, [r2, #0]
#endif /* PREFETCH_ENABLE */

  /* Set Interrupt Group Priority */
  HAL_NVIC_SetPriorityGrouping(NVIC_PRIORITYGROUP_4);
 8001484:	2003      	movs	r0, #3
 8001486:	f000 fb6f 	bl	8001b68 <HAL_NVIC_SetPriorityGrouping>

  /* Use systick as time base source and configure 1ms tick (default clock after Reset is HSI) */
  HAL_InitTick(TICK_INT_PRIORITY);
 800148a:	2000      	movs	r0, #0
 800148c:	f000 f808 	bl	80014a0 <HAL_InitTick>

  /* Init the low level hardware */
  HAL_MspInit();
 8001490:	f7ff fe7a 	bl	8001188 <HAL_MspInit>

  /* Return function status */
  return HAL_OK;
 8001494:	2300      	movs	r3, #0
}
 8001496:	4618      	mov	r0, r3
 8001498:	bd80      	pop	{r7, pc}
 800149a:	bf00      	nop
 800149c:	40023c00 	.word	0x40023c00

080014a0 <HAL_InitTick>:
  *       implementation  in user file.
  * @param TickPriority Tick interrupt priority.
  * @retval HAL status
  */
__weak HAL_StatusTypeDef HAL_InitTick(uint32_t TickPriority)
{
 80014a0:	b580      	push	{r7, lr}
 80014a2:	b082      	sub	sp, #8
 80014a4:	af00      	add	r7, sp, #0
 80014a6:	6078      	str	r0, [r7, #4]
  /* Configure the SysTick to have interrupt in 1ms time basis*/
  if (HAL_SYSTICK_Config(SystemCoreClock / (1000U / uwTickFreq)) > 0U)
 80014a8:	4b12      	ldr	r3, [pc, #72]	; (80014f4 <HAL_InitTick+0x54>)
 80014aa:	681a      	ldr	r2, [r3, #0]
 80014ac:	4b12      	ldr	r3, [pc, #72]	; (80014f8 <HAL_InitTick+0x58>)
 80014ae:	781b      	ldrb	r3, [r3, #0]
 80014b0:	4619      	mov	r1, r3
 80014b2:	f44f 737a 	mov.w	r3, #1000	; 0x3e8
 80014b6:	fbb3 f3f1 	udiv	r3, r3, r1
 80014ba:	fbb2 f3f3 	udiv	r3, r2, r3
 80014be:	4618      	mov	r0, r3
 80014c0:	f000 fb79 	bl	8001bb6 <HAL_SYSTICK_Config>
 80014c4:	4603      	mov	r3, r0
 80014c6:	2b00      	cmp	r3, #0
 80014c8:	d001      	beq.n	80014ce <HAL_InitTick+0x2e>
  {
    return HAL_ERROR;
 80014ca:	2301      	movs	r3, #1
 80014cc:	e00e      	b.n	80014ec <HAL_InitTick+0x4c>
  }

  /* Configure the SysTick IRQ priority */
  if (TickPriority < (1UL << __NVIC_PRIO_BITS))
 80014ce:	687b      	ldr	r3, [r7, #4]
 80014d0:	2b0f      	cmp	r3, #15
 80014d2:	d80a      	bhi.n	80014ea <HAL_InitTick+0x4a>
  {
    HAL_NVIC_SetPriority(SysTick_IRQn, TickPriority, 0U);
 80014d4:	2200      	movs	r2, #0
 80014d6:	6879      	ldr	r1, [r7, #4]
 80014d8:	f04f 30ff 	mov.w	r0, #4294967295
 80014dc:	f000 fb4f 	bl	8001b7e <HAL_NVIC_SetPriority>
    uwTickPrio = TickPriority;
 80014e0:	4a06      	ldr	r2, [pc, #24]	; (80014fc <HAL_InitTick+0x5c>)
 80014e2:	687b      	ldr	r3, [r7, #4]
 80014e4:	6013      	str	r3, [r2, #0]
  {
    return HAL_ERROR;
  }

  /* Return function status */
  return HAL_OK;
 80014e6:	2300      	movs	r3, #0
 80014e8:	e000      	b.n	80014ec <HAL_InitTick+0x4c>
    return HAL_ERROR;
 80014ea:	2301      	movs	r3, #1
}
 80014ec:	4618      	mov	r0, r3
 80014ee:	3708      	adds	r7, #8
 80014f0:	46bd      	mov	sp, r7
 80014f2:	bd80      	pop	{r7, pc}
 80014f4:	20000000 	.word	0x20000000
 80014f8:	20000008 	.word	0x20000008
 80014fc:	20000004 	.word	0x20000004

08001500 <HAL_IncTick>:
 * @note This function is declared as __weak to be overwritten in case of other 
  *      implementations in user file.
  * @retval None
  */
__weak void HAL_IncTick(void)
{
 8001500:	b480      	push	{r7}
 8001502:	af00      	add	r7, sp, #0
  uwTick += uwTickFreq;
 8001504:	4b06      	ldr	r3, [pc, #24]	; (8001520 <HAL_IncTick+0x20>)
 8001506:	781b      	ldrb	r3, [r3, #0]
 8001508:	461a      	mov	r2, r3
 800150a:	4b06      	ldr	r3, [pc, #24]	; (8001524 <HAL_IncTick+0x24>)
 800150c:	681b      	ldr	r3, [r3, #0]
 800150e:	4413      	add	r3, r2
 8001510:	4a04      	ldr	r2, [pc, #16]	; (8001524 <HAL_IncTick+0x24>)
 8001512:	6013      	str	r3, [r2, #0]
}
 8001514:	bf00      	nop
 8001516:	46bd      	mov	sp, r7
 8001518:	f85d 7b04 	ldr.w	r7, [sp], #4
 800151c:	4770      	bx	lr
 800151e:	bf00      	nop
 8001520:	20000008 	.word	0x20000008
 8001524:	2000029c 	.word	0x2000029c

08001528 <HAL_GetTick>:
  * @note This function is declared as __weak to be overwritten in case of other 
  *       implementations in user file.
  * @retval tick value
  */
__weak uint32_t HAL_GetTick(void)
{
 8001528:	b480      	push	{r7}
 800152a:	af00      	add	r7, sp, #0
  return uwTick;
 800152c:	4b03      	ldr	r3, [pc, #12]	; (800153c <HAL_GetTick+0x14>)
 800152e:	681b      	ldr	r3, [r3, #0]
}
 8001530:	4618      	mov	r0, r3
 8001532:	46bd      	mov	sp, r7
 8001534:	f85d 7b04 	ldr.w	r7, [sp], #4
 8001538:	4770      	bx	lr
 800153a:	bf00      	nop
 800153c:	2000029c 	.word	0x2000029c

08001540 <HAL_ADC_Init>:
  * @param  hadc pointer to a ADC_HandleTypeDef structure that contains
  *         the configuration information for the specified ADC.  
  * @retval HAL status
  */
HAL_StatusTypeDef HAL_ADC_Init(ADC_HandleTypeDef* hadc)
{
 8001540:	b580      	push	{r7, lr}
 8001542:	b084      	sub	sp, #16
 8001544:	af00      	add	r7, sp, #0
 8001546:	6078      	str	r0, [r7, #4]
  HAL_StatusTypeDef tmp_hal_status = HAL_OK;
 8001548:	2300      	movs	r3, #0
 800154a:	73fb      	strb	r3, [r7, #15]
  
  /* Check ADC handle */
  if(hadc == NULL)
 800154c:	687b      	ldr	r3, [r7, #4]
 800154e:	2b00      	cmp	r3, #0
 8001550:	d101      	bne.n	8001556 <HAL_ADC_Init+0x16>
  {
    return HAL_ERROR;
 8001552:	2301      	movs	r3, #1
 8001554:	e033      	b.n	80015be <HAL_ADC_Init+0x7e>
  if(hadc->Init.ExternalTrigConv != ADC_SOFTWARE_START)
  {
    assert_param(IS_ADC_EXT_TRIG_EDGE(hadc->Init.ExternalTrigConvEdge));
  }
  
  if(hadc->State == HAL_ADC_STATE_RESET)
 8001556:	687b      	ldr	r3, [r7, #4]
 8001558:	6c1b      	ldr	r3, [r3, #64]	; 0x40
 800155a:	2b00      	cmp	r3, #0
 800155c:	d109      	bne.n	8001572 <HAL_ADC_Init+0x32>

    /* Init the low level hardware */
    hadc->MspInitCallback(hadc);
#else
    /* Init the low level hardware */
    HAL_ADC_MspInit(hadc);
 800155e:	6878      	ldr	r0, [r7, #4]
 8001560:	f7ff fe3a 	bl	80011d8 <HAL_ADC_MspInit>
#endif /* USE_HAL_ADC_REGISTER_CALLBACKS */

    /* Initialize ADC error code */
    ADC_CLEAR_ERRORCODE(hadc);
 8001564:	687b      	ldr	r3, [r7, #4]
 8001566:	2200      	movs	r2, #0
 8001568:	645a      	str	r2, [r3, #68]	; 0x44
    
    /* Allocate lock resource and initialize it */
    hadc->Lock = HAL_UNLOCKED;
 800156a:	687b      	ldr	r3, [r7, #4]
 800156c:	2200      	movs	r2, #0
 800156e:	f883 203c 	strb.w	r2, [r3, #60]	; 0x3c
  }
  
  /* Configuration of ADC parameters if previous preliminary actions are      */ 
  /* correctly completed.                                                     */
  if (HAL_IS_BIT_CLR(hadc->State, HAL_ADC_STATE_ERROR_INTERNAL))
 8001572:	687b      	ldr	r3, [r7, #4]
 8001574:	6c1b      	ldr	r3, [r3, #64]	; 0x40
 8001576:	f003 0310 	and.w	r3, r3, #16
 800157a:	2b00      	cmp	r3, #0
 800157c:	d118      	bne.n	80015b0 <HAL_ADC_Init+0x70>
  {
    /* Set ADC state */
    ADC_STATE_CLR_SET(hadc->State,
 800157e:	687b      	ldr	r3, [r7, #4]
 8001580:	6c1b      	ldr	r3, [r3, #64]	; 0x40
 8001582:	f423 5388 	bic.w	r3, r3, #4352	; 0x1100
 8001586:	f023 0302 	bic.w	r3, r3, #2
 800158a:	f043 0202 	orr.w	r2, r3, #2
 800158e:	687b      	ldr	r3, [r7, #4]
 8001590:	641a      	str	r2, [r3, #64]	; 0x40
                      HAL_ADC_STATE_REG_BUSY | HAL_ADC_STATE_INJ_BUSY,
                      HAL_ADC_STATE_BUSY_INTERNAL);
    
    /* Set ADC parameters */
    ADC_Init(hadc);
 8001592:	6878      	ldr	r0, [r7, #4]
 8001594:	f000 f93a 	bl	800180c <ADC_Init>
    
    /* Set ADC error code to none */
    ADC_CLEAR_ERRORCODE(hadc);
 8001598:	687b      	ldr	r3, [r7, #4]
 800159a:	2200      	movs	r2, #0
 800159c:	645a      	str	r2, [r3, #68]	; 0x44
    
    /* Set the ADC state */
    ADC_STATE_CLR_SET(hadc->State,
 800159e:	687b      	ldr	r3, [r7, #4]
 80015a0:	6c1b      	ldr	r3, [r3, #64]	; 0x40
 80015a2:	f023 0303 	bic.w	r3, r3, #3
 80015a6:	f043 0201 	orr.w	r2, r3, #1
 80015aa:	687b      	ldr	r3, [r7, #4]
 80015ac:	641a      	str	r2, [r3, #64]	; 0x40
 80015ae:	e001      	b.n	80015b4 <HAL_ADC_Init+0x74>
                      HAL_ADC_STATE_BUSY_INTERNAL,
                      HAL_ADC_STATE_READY);
  }
  else
  {
    tmp_hal_status = HAL_ERROR;
 80015b0:	2301      	movs	r3, #1
 80015b2:	73fb      	strb	r3, [r7, #15]
  }
  
  /* Release Lock */
  __HAL_UNLOCK(hadc);
 80015b4:	687b      	ldr	r3, [r7, #4]
 80015b6:	2200      	movs	r2, #0
 80015b8:	f883 203c 	strb.w	r2, [r3, #60]	; 0x3c

  /* Return function status */
  return tmp_hal_status;
 80015bc:	7bfb      	ldrb	r3, [r7, #15]
}
 80015be:	4618      	mov	r0, r3
 80015c0:	3710      	adds	r7, #16
 80015c2:	46bd      	mov	sp, r7
 80015c4:	bd80      	pop	{r7, pc}
	...

080015c8 <HAL_ADC_ConfigChannel>:
  *         the configuration information for the specified ADC.
  * @param  sConfig ADC configuration structure. 
  * @retval HAL status
  */
HAL_StatusTypeDef HAL_ADC_ConfigChannel(ADC_HandleTypeDef* hadc, ADC_ChannelConfTypeDef* sConfig)
{
 80015c8:	b480      	push	{r7}
 80015ca:	b085      	sub	sp, #20
 80015cc:	af00      	add	r7, sp, #0
 80015ce:	6078      	str	r0, [r7, #4]
 80015d0:	6039      	str	r1, [r7, #0]
  __IO uint32_t counter = 0U;
 80015d2:	2300      	movs	r3, #0
 80015d4:	60bb      	str	r3, [r7, #8]
  assert_param(IS_ADC_CHANNEL(sConfig->Channel));
  assert_param(IS_ADC_REGULAR_RANK(sConfig->Rank));
  assert_param(IS_ADC_SAMPLE_TIME(sConfig->SamplingTime));
  
  /* Process locked */
  __HAL_LOCK(hadc);
 80015d6:	687b      	ldr	r3, [r7, #4]
 80015d8:	f893 303c 	ldrb.w	r3, [r3, #60]	; 0x3c
 80015dc:	2b01      	cmp	r3, #1
 80015de:	d101      	bne.n	80015e4 <HAL_ADC_ConfigChannel+0x1c>
 80015e0:	2302      	movs	r3, #2
 80015e2:	e105      	b.n	80017f0 <HAL_ADC_ConfigChannel+0x228>
 80015e4:	687b      	ldr	r3, [r7, #4]
 80015e6:	2201      	movs	r2, #1
 80015e8:	f883 203c 	strb.w	r2, [r3, #60]	; 0x3c
    
  /* if ADC_Channel_10 ... ADC_Channel_18 is selected */
  if (sConfig->Channel > ADC_CHANNEL_9)
 80015ec:	683b      	ldr	r3, [r7, #0]
 80015ee:	681b      	ldr	r3, [r3, #0]
 80015f0:	2b09      	cmp	r3, #9
 80015f2:	d925      	bls.n	8001640 <HAL_ADC_ConfigChannel+0x78>
  {
    /* Clear the old sample time */
    hadc->Instance->SMPR1 &= ~ADC_SMPR1(ADC_SMPR1_SMP10, sConfig->Channel);
 80015f4:	687b      	ldr	r3, [r7, #4]
 80015f6:	681b      	ldr	r3, [r3, #0]
 80015f8:	68d9      	ldr	r1, [r3, #12]
 80015fa:	683b      	ldr	r3, [r7, #0]
 80015fc:	681b      	ldr	r3, [r3, #0]
 80015fe:	b29b      	uxth	r3, r3
 8001600:	461a      	mov	r2, r3
 8001602:	4613      	mov	r3, r2
 8001604:	005b      	lsls	r3, r3, #1
 8001606:	4413      	add	r3, r2
 8001608:	3b1e      	subs	r3, #30
 800160a:	2207      	movs	r2, #7
 800160c:	fa02 f303 	lsl.w	r3, r2, r3
 8001610:	43da      	mvns	r2, r3
 8001612:	687b      	ldr	r3, [r7, #4]
 8001614:	681b      	ldr	r3, [r3, #0]
 8001616:	400a      	ands	r2, r1
 8001618:	60da      	str	r2, [r3, #12]
    
    /* Set the new sample time */
    hadc->Instance->SMPR1 |= ADC_SMPR1(sConfig->SamplingTime, sConfig->Channel);
 800161a:	687b      	ldr	r3, [r7, #4]
 800161c:	681b      	ldr	r3, [r3, #0]
 800161e:	68d9      	ldr	r1, [r3, #12]
 8001620:	683b      	ldr	r3, [r7, #0]
 8001622:	689a      	ldr	r2, [r3, #8]
 8001624:	683b      	ldr	r3, [r7, #0]
 8001626:	681b      	ldr	r3, [r3, #0]
 8001628:	b29b      	uxth	r3, r3
 800162a:	4618      	mov	r0, r3
 800162c:	4603      	mov	r3, r0
 800162e:	005b      	lsls	r3, r3, #1
 8001630:	4403      	add	r3, r0
 8001632:	3b1e      	subs	r3, #30
 8001634:	409a      	lsls	r2, r3
 8001636:	687b      	ldr	r3, [r7, #4]
 8001638:	681b      	ldr	r3, [r3, #0]
 800163a:	430a      	orrs	r2, r1
 800163c:	60da      	str	r2, [r3, #12]
 800163e:	e022      	b.n	8001686 <HAL_ADC_ConfigChannel+0xbe>
  }
  else /* ADC_Channel include in ADC_Channel_[0..9] */
  {
    /* Clear the old sample time */
    hadc->Instance->SMPR2 &= ~ADC_SMPR2(ADC_SMPR2_SMP0, sConfig->Channel);
 8001640:	687b      	ldr	r3, [r7, #4]
 8001642:	681b      	ldr	r3, [r3, #0]
 8001644:	6919      	ldr	r1, [r3, #16]
 8001646:	683b      	ldr	r3, [r7, #0]
 8001648:	681b      	ldr	r3, [r3, #0]
 800164a:	b29b      	uxth	r3, r3
 800164c:	461a      	mov	r2, r3
 800164e:	4613      	mov	r3, r2
 8001650:	005b      	lsls	r3, r3, #1
 8001652:	4413      	add	r3, r2
 8001654:	2207      	movs	r2, #7
 8001656:	fa02 f303 	lsl.w	r3, r2, r3
 800165a:	43da      	mvns	r2, r3
 800165c:	687b      	ldr	r3, [r7, #4]
 800165e:	681b      	ldr	r3, [r3, #0]
 8001660:	400a      	ands	r2, r1
 8001662:	611a      	str	r2, [r3, #16]
    
    /* Set the new sample time */
    hadc->Instance->SMPR2 |= ADC_SMPR2(sConfig->SamplingTime, sConfig->Channel);
 8001664:	687b      	ldr	r3, [r7, #4]
 8001666:	681b      	ldr	r3, [r3, #0]
 8001668:	6919      	ldr	r1, [r3, #16]
 800166a:	683b      	ldr	r3, [r7, #0]
 800166c:	689a      	ldr	r2, [r3, #8]
 800166e:	683b      	ldr	r3, [r7, #0]
 8001670:	681b      	ldr	r3, [r3, #0]
 8001672:	b29b      	uxth	r3, r3
 8001674:	4618      	mov	r0, r3
 8001676:	4603      	mov	r3, r0
 8001678:	005b      	lsls	r3, r3, #1
 800167a:	4403      	add	r3, r0
 800167c:	409a      	lsls	r2, r3
 800167e:	687b      	ldr	r3, [r7, #4]
 8001680:	681b      	ldr	r3, [r3, #0]
 8001682:	430a      	orrs	r2, r1
 8001684:	611a      	str	r2, [r3, #16]
  }
  
  /* For Rank 1 to 6 */
  if (sConfig->Rank < 7U)
 8001686:	683b      	ldr	r3, [r7, #0]
 8001688:	685b      	ldr	r3, [r3, #4]
 800168a:	2b06      	cmp	r3, #6
 800168c:	d824      	bhi.n	80016d8 <HAL_ADC_ConfigChannel+0x110>
  {
    /* Clear the old SQx bits for the selected rank */
    hadc->Instance->SQR3 &= ~ADC_SQR3_RK(ADC_SQR3_SQ1, sConfig->Rank);
 800168e:	687b      	ldr	r3, [r7, #4]
 8001690:	681b      	ldr	r3, [r3, #0]
 8001692:	6b59      	ldr	r1, [r3, #52]	; 0x34
 8001694:	683b      	ldr	r3, [r7, #0]
 8001696:	685a      	ldr	r2, [r3, #4]
 8001698:	4613      	mov	r3, r2
 800169a:	009b      	lsls	r3, r3, #2
 800169c:	4413      	add	r3, r2
 800169e:	3b05      	subs	r3, #5
 80016a0:	221f      	movs	r2, #31
 80016a2:	fa02 f303 	lsl.w	r3, r2, r3
 80016a6:	43da      	mvns	r2, r3
 80016a8:	687b      	ldr	r3, [r7, #4]
 80016aa:	681b      	ldr	r3, [r3, #0]
 80016ac:	400a      	ands	r2, r1
 80016ae:	635a      	str	r2, [r3, #52]	; 0x34
    
    /* Set the SQx bits for the selected rank */
    hadc->Instance->SQR3 |= ADC_SQR3_RK(sConfig->Channel, sConfig->Rank);
 80016b0:	687b      	ldr	r3, [r7, #4]
 80016b2:	681b      	ldr	r3, [r3, #0]
 80016b4:	6b59      	ldr	r1, [r3, #52]	; 0x34
 80016b6:	683b      	ldr	r3, [r7, #0]
 80016b8:	681b      	ldr	r3, [r3, #0]
 80016ba:	b29b      	uxth	r3, r3
 80016bc:	4618      	mov	r0, r3
 80016be:	683b      	ldr	r3, [r7, #0]
 80016c0:	685a      	ldr	r2, [r3, #4]
 80016c2:	4613      	mov	r3, r2
 80016c4:	009b      	lsls	r3, r3, #2
 80016c6:	4413      	add	r3, r2
 80016c8:	3b05      	subs	r3, #5
 80016ca:	fa00 f203 	lsl.w	r2, r0, r3
 80016ce:	687b      	ldr	r3, [r7, #4]
 80016d0:	681b      	ldr	r3, [r3, #0]
 80016d2:	430a      	orrs	r2, r1
 80016d4:	635a      	str	r2, [r3, #52]	; 0x34
 80016d6:	e04c      	b.n	8001772 <HAL_ADC_ConfigChannel+0x1aa>
  }
  /* For Rank 7 to 12 */
  else if (sConfig->Rank < 13U)
 80016d8:	683b      	ldr	r3, [r7, #0]
 80016da:	685b      	ldr	r3, [r3, #4]
 80016dc:	2b0c      	cmp	r3, #12
 80016de:	d824      	bhi.n	800172a <HAL_ADC_ConfigChannel+0x162>
  {
    /* Clear the old SQx bits for the selected rank */
    hadc->Instance->SQR2 &= ~ADC_SQR2_RK(ADC_SQR2_SQ7, sConfig->Rank);
 80016e0:	687b      	ldr	r3, [r7, #4]
 80016e2:	681b      	ldr	r3, [r3, #0]
 80016e4:	6b19      	ldr	r1, [r3, #48]	; 0x30
 80016e6:	683b      	ldr	r3, [r7, #0]
 80016e8:	685a      	ldr	r2, [r3, #4]
 80016ea:	4613      	mov	r3, r2
 80016ec:	009b      	lsls	r3, r3, #2
 80016ee:	4413      	add	r3, r2
 80016f0:	3b23      	subs	r3, #35	; 0x23
 80016f2:	221f      	movs	r2, #31
 80016f4:	fa02 f303 	lsl.w	r3, r2, r3
 80016f8:	43da      	mvns	r2, r3
 80016fa:	687b      	ldr	r3, [r7, #4]
 80016fc:	681b      	ldr	r3, [r3, #0]
 80016fe:	400a      	ands	r2, r1
 8001700:	631a      	str	r2, [r3, #48]	; 0x30
    
    /* Set the SQx bits for the selected rank */
    hadc->Instance->SQR2 |= ADC_SQR2_RK(sConfig->Channel, sConfig->Rank);
 8001702:	687b      	ldr	r3, [r7, #4]
 8001704:	681b      	ldr	r3, [r3, #0]
 8001706:	6b19      	ldr	r1, [r3, #48]	; 0x30
 8001708:	683b      	ldr	r3, [r7, #0]
 800170a:	681b      	ldr	r3, [r3, #0]
 800170c:	b29b      	uxth	r3, r3
 800170e:	4618      	mov	r0, r3
 8001710:	683b      	ldr	r3, [r7, #0]
 8001712:	685a      	ldr	r2, [r3, #4]
 8001714:	4613      	mov	r3, r2
 8001716:	009b      	lsls	r3, r3, #2
 8001718:	4413      	add	r3, r2
 800171a:	3b23      	subs	r3, #35	; 0x23
 800171c:	fa00 f203 	lsl.w	r2, r0, r3
 8001720:	687b      	ldr	r3, [r7, #4]
 8001722:	681b      	ldr	r3, [r3, #0]
 8001724:	430a      	orrs	r2, r1
 8001726:	631a      	str	r2, [r3, #48]	; 0x30
 8001728:	e023      	b.n	8001772 <HAL_ADC_ConfigChannel+0x1aa>
  }
  /* For Rank 13 to 16 */
  else
  {
    /* Clear the old SQx bits for the selected rank */
    hadc->Instance->SQR1 &= ~ADC_SQR1_RK(ADC_SQR1_SQ13, sConfig->Rank);
 800172a:	687b      	ldr	r3, [r7, #4]
 800172c:	681b      	ldr	r3, [r3, #0]
 800172e:	6ad9      	ldr	r1, [r3, #44]	; 0x2c
 8001730:	683b      	ldr	r3, [r7, #0]
 8001732:	685a      	ldr	r2, [r3, #4]
 8001734:	4613      	mov	r3, r2
 8001736:	009b      	lsls	r3, r3, #2
 8001738:	4413      	add	r3, r2
 800173a:	3b41      	subs	r3, #65	; 0x41
 800173c:	221f      	movs	r2, #31
 800173e:	fa02 f303 	lsl.w	r3, r2, r3
 8001742:	43da      	mvns	r2, r3
 8001744:	687b      	ldr	r3, [r7, #4]
 8001746:	681b      	ldr	r3, [r3, #0]
 8001748:	400a      	ands	r2, r1
 800174a:	62da      	str	r2, [r3, #44]	; 0x2c
    
    /* Set the SQx bits for the selected rank */
    hadc->Instance->SQR1 |= ADC_SQR1_RK(sConfig->Channel, sConfig->Rank);
 800174c:	687b      	ldr	r3, [r7, #4]
 800174e:	681b      	ldr	r3, [r3, #0]
 8001750:	6ad9      	ldr	r1, [r3, #44]	; 0x2c
 8001752:	683b      	ldr	r3, [r7, #0]
 8001754:	681b      	ldr	r3, [r3, #0]
 8001756:	b29b      	uxth	r3, r3
 8001758:	4618      	mov	r0, r3
 800175a:	683b      	ldr	r3, [r7, #0]
 800175c:	685a      	ldr	r2, [r3, #4]
 800175e:	4613      	mov	r3, r2
 8001760:	009b      	lsls	r3, r3, #2
 8001762:	4413      	add	r3, r2
 8001764:	3b41      	subs	r3, #65	; 0x41
 8001766:	fa00 f203 	lsl.w	r2, r0, r3
 800176a:	687b      	ldr	r3, [r7, #4]
 800176c:	681b      	ldr	r3, [r3, #0]
 800176e:	430a      	orrs	r2, r1
 8001770:	62da      	str	r2, [r3, #44]	; 0x2c
  }

    /* Pointer to the common control register to which is belonging hadc    */
    /* (Depending on STM32F4 product, there may be up to 3 ADCs and 1 common */
    /* control register)                                                    */
    tmpADC_Common = ADC_COMMON_REGISTER(hadc);
 8001772:	4b22      	ldr	r3, [pc, #136]	; (80017fc <HAL_ADC_ConfigChannel+0x234>)
 8001774:	60fb      	str	r3, [r7, #12]

  /* if ADC1 Channel_18 is selected for VBAT Channel ennable VBATE */
  if ((hadc->Instance == ADC1) && (sConfig->Channel == ADC_CHANNEL_VBAT))
 8001776:	687b      	ldr	r3, [r7, #4]
 8001778:	681b      	ldr	r3, [r3, #0]
 800177a:	4a21      	ldr	r2, [pc, #132]	; (8001800 <HAL_ADC_ConfigChannel+0x238>)
 800177c:	4293      	cmp	r3, r2
 800177e:	d109      	bne.n	8001794 <HAL_ADC_ConfigChannel+0x1cc>
 8001780:	683b      	ldr	r3, [r7, #0]
 8001782:	681b      	ldr	r3, [r3, #0]
 8001784:	2b12      	cmp	r3, #18
 8001786:	d105      	bne.n	8001794 <HAL_ADC_ConfigChannel+0x1cc>
    if ((uint16_t)ADC_CHANNEL_TEMPSENSOR == (uint16_t)ADC_CHANNEL_VBAT)
    {
      tmpADC_Common->CCR &= ~ADC_CCR_TSVREFE;
    }
    /* Enable the VBAT channel*/
    tmpADC_Common->CCR |= ADC_CCR_VBATE;
 8001788:	68fb      	ldr	r3, [r7, #12]
 800178a:	685b      	ldr	r3, [r3, #4]
 800178c:	f443 0280 	orr.w	r2, r3, #4194304	; 0x400000
 8001790:	68fb      	ldr	r3, [r7, #12]
 8001792:	605a      	str	r2, [r3, #4]
  }
  
  /* if ADC1 Channel_16 or Channel_18 is selected for Temperature sensor or 
     Channel_17 is selected for VREFINT enable TSVREFE */
  if ((hadc->Instance == ADC1) && ((sConfig->Channel == ADC_CHANNEL_TEMPSENSOR) || (sConfig->Channel == ADC_CHANNEL_VREFINT)))
 8001794:	687b      	ldr	r3, [r7, #4]
 8001796:	681b      	ldr	r3, [r3, #0]
 8001798:	4a19      	ldr	r2, [pc, #100]	; (8001800 <HAL_ADC_ConfigChannel+0x238>)
 800179a:	4293      	cmp	r3, r2
 800179c:	d123      	bne.n	80017e6 <HAL_ADC_ConfigChannel+0x21e>
 800179e:	683b      	ldr	r3, [r7, #0]
 80017a0:	681b      	ldr	r3, [r3, #0]
 80017a2:	2b10      	cmp	r3, #16
 80017a4:	d003      	beq.n	80017ae <HAL_ADC_ConfigChannel+0x1e6>
 80017a6:	683b      	ldr	r3, [r7, #0]
 80017a8:	681b      	ldr	r3, [r3, #0]
 80017aa:	2b11      	cmp	r3, #17
 80017ac:	d11b      	bne.n	80017e6 <HAL_ADC_ConfigChannel+0x21e>
    if ((uint16_t)ADC_CHANNEL_TEMPSENSOR == (uint16_t)ADC_CHANNEL_VBAT)
    {
      tmpADC_Common->CCR &= ~ADC_CCR_VBATE;
    }
    /* Enable the Temperature sensor and VREFINT channel*/
    tmpADC_Common->CCR |= ADC_CCR_TSVREFE;
 80017ae:	68fb      	ldr	r3, [r7, #12]
 80017b0:	685b      	ldr	r3, [r3, #4]
 80017b2:	f443 0200 	orr.w	r2, r3, #8388608	; 0x800000
 80017b6:	68fb      	ldr	r3, [r7, #12]
 80017b8:	605a      	str	r2, [r3, #4]
    
    if((sConfig->Channel == ADC_CHANNEL_TEMPSENSOR))
 80017ba:	683b      	ldr	r3, [r7, #0]
 80017bc:	681b      	ldr	r3, [r3, #0]
 80017be:	2b10      	cmp	r3, #16
 80017c0:	d111      	bne.n	80017e6 <HAL_ADC_ConfigChannel+0x21e>
    {
      /* Delay for temperature sensor stabilization time */
      /* Compute number of CPU cycles to wait for */
      counter = (ADC_TEMPSENSOR_DELAY_US * (SystemCoreClock / 1000000U));
 80017c2:	4b10      	ldr	r3, [pc, #64]	; (8001804 <HAL_ADC_ConfigChannel+0x23c>)
 80017c4:	681b      	ldr	r3, [r3, #0]
 80017c6:	4a10      	ldr	r2, [pc, #64]	; (8001808 <HAL_ADC_ConfigChannel+0x240>)
 80017c8:	fba2 2303 	umull	r2, r3, r2, r3
 80017cc:	0c9a      	lsrs	r2, r3, #18
 80017ce:	4613      	mov	r3, r2
 80017d0:	009b      	lsls	r3, r3, #2
 80017d2:	4413      	add	r3, r2
 80017d4:	005b      	lsls	r3, r3, #1
 80017d6:	60bb      	str	r3, [r7, #8]
      while(counter != 0U)
 80017d8:	e002      	b.n	80017e0 <HAL_ADC_ConfigChannel+0x218>
      {
        counter--;
 80017da:	68bb      	ldr	r3, [r7, #8]
 80017dc:	3b01      	subs	r3, #1
 80017de:	60bb      	str	r3, [r7, #8]
      while(counter != 0U)
 80017e0:	68bb      	ldr	r3, [r7, #8]
 80017e2:	2b00      	cmp	r3, #0
 80017e4:	d1f9      	bne.n	80017da <HAL_ADC_ConfigChannel+0x212>
      }
    }
  }
  
  /* Process unlocked */
  __HAL_UNLOCK(hadc);
 80017e6:	687b      	ldr	r3, [r7, #4]
 80017e8:	2200      	movs	r2, #0
 80017ea:	f883 203c 	strb.w	r2, [r3, #60]	; 0x3c
  
  /* Return function status */
  return HAL_OK;
 80017ee:	2300      	movs	r3, #0
}
 80017f0:	4618      	mov	r0, r3
 80017f2:	3714      	adds	r7, #20
 80017f4:	46bd      	mov	sp, r7
 80017f6:	f85d 7b04 	ldr.w	r7, [sp], #4
 80017fa:	4770      	bx	lr
 80017fc:	40012300 	.word	0x40012300
 8001800:	40012000 	.word	0x40012000
 8001804:	20000000 	.word	0x20000000
 8001808:	431bde83 	.word	0x431bde83

0800180c <ADC_Init>:
  * @param  hadc pointer to a ADC_HandleTypeDef structure that contains
  *         the configuration information for the specified ADC.  
  * @retval None
  */
static void ADC_Init(ADC_HandleTypeDef* hadc)
{
 800180c:	b480      	push	{r7}
 800180e:	b085      	sub	sp, #20
 8001810:	af00      	add	r7, sp, #0
 8001812:	6078      	str	r0, [r7, #4]
  
  /* Set ADC parameters */
  /* Pointer to the common control register to which is belonging hadc    */
  /* (Depending on STM32F4 product, there may be up to 3 ADCs and 1 common */
  /* control register)                                                    */
  tmpADC_Common = ADC_COMMON_REGISTER(hadc);
 8001814:	4b79      	ldr	r3, [pc, #484]	; (80019fc <ADC_Init+0x1f0>)
 8001816:	60fb      	str	r3, [r7, #12]
  
  /* Set the ADC clock prescaler */
  tmpADC_Common->CCR &= ~(ADC_CCR_ADCPRE);
 8001818:	68fb      	ldr	r3, [r7, #12]
 800181a:	685b      	ldr	r3, [r3, #4]
 800181c:	f423 3240 	bic.w	r2, r3, #196608	; 0x30000
 8001820:	68fb      	ldr	r3, [r7, #12]
 8001822:	605a      	str	r2, [r3, #4]
  tmpADC_Common->CCR |=  hadc->Init.ClockPrescaler;
 8001824:	68fb      	ldr	r3, [r7, #12]
 8001826:	685a      	ldr	r2, [r3, #4]
 8001828:	687b      	ldr	r3, [r7, #4]
 800182a:	685b      	ldr	r3, [r3, #4]
 800182c:	431a      	orrs	r2, r3
 800182e:	68fb      	ldr	r3, [r7, #12]
 8001830:	605a      	str	r2, [r3, #4]
  
  /* Set ADC scan mode */
  hadc->Instance->CR1 &= ~(ADC_CR1_SCAN);
 8001832:	687b      	ldr	r3, [r7, #4]
 8001834:	681b      	ldr	r3, [r3, #0]
 8001836:	685a      	ldr	r2, [r3, #4]
 8001838:	687b      	ldr	r3, [r7, #4]
 800183a:	681b      	ldr	r3, [r3, #0]
 800183c:	f422 7280 	bic.w	r2, r2, #256	; 0x100
 8001840:	605a      	str	r2, [r3, #4]
  hadc->Instance->CR1 |=  ADC_CR1_SCANCONV(hadc->Init.ScanConvMode);
 8001842:	687b      	ldr	r3, [r7, #4]
 8001844:	681b      	ldr	r3, [r3, #0]
 8001846:	6859      	ldr	r1, [r3, #4]
 8001848:	687b      	ldr	r3, [r7, #4]
 800184a:	691b      	ldr	r3, [r3, #16]
 800184c:	021a      	lsls	r2, r3, #8
 800184e:	687b      	ldr	r3, [r7, #4]
 8001850:	681b      	ldr	r3, [r3, #0]
 8001852:	430a      	orrs	r2, r1
 8001854:	605a      	str	r2, [r3, #4]
  
  /* Set ADC resolution */
  hadc->Instance->CR1 &= ~(ADC_CR1_RES);
 8001856:	687b      	ldr	r3, [r7, #4]
 8001858:	681b      	ldr	r3, [r3, #0]
 800185a:	685a      	ldr	r2, [r3, #4]
 800185c:	687b      	ldr	r3, [r7, #4]
 800185e:	681b      	ldr	r3, [r3, #0]
 8001860:	f022 7240 	bic.w	r2, r2, #50331648	; 0x3000000
 8001864:	605a      	str	r2, [r3, #4]
  hadc->Instance->CR1 |=  hadc->Init.Resolution;
 8001866:	687b      	ldr	r3, [r7, #4]
 8001868:	681b      	ldr	r3, [r3, #0]
 800186a:	6859      	ldr	r1, [r3, #4]
 800186c:	687b      	ldr	r3, [r7, #4]
 800186e:	689a      	ldr	r2, [r3, #8]
 8001870:	687b      	ldr	r3, [r7, #4]
 8001872:	681b      	ldr	r3, [r3, #0]
 8001874:	430a      	orrs	r2, r1
 8001876:	605a      	str	r2, [r3, #4]
  
  /* Set ADC data alignment */
  hadc->Instance->CR2 &= ~(ADC_CR2_ALIGN);
 8001878:	687b      	ldr	r3, [r7, #4]
 800187a:	681b      	ldr	r3, [r3, #0]
 800187c:	689a      	ldr	r2, [r3, #8]
 800187e:	687b      	ldr	r3, [r7, #4]
 8001880:	681b      	ldr	r3, [r3, #0]
 8001882:	f422 6200 	bic.w	r2, r2, #2048	; 0x800
 8001886:	609a      	str	r2, [r3, #8]
  hadc->Instance->CR2 |= hadc->Init.DataAlign;
 8001888:	687b      	ldr	r3, [r7, #4]
 800188a:	681b      	ldr	r3, [r3, #0]
 800188c:	6899      	ldr	r1, [r3, #8]
 800188e:	687b      	ldr	r3, [r7, #4]
 8001890:	68da      	ldr	r2, [r3, #12]
 8001892:	687b      	ldr	r3, [r7, #4]
 8001894:	681b      	ldr	r3, [r3, #0]
 8001896:	430a      	orrs	r2, r1
 8001898:	609a      	str	r2, [r3, #8]
  /* Enable external trigger if trigger selection is different of software  */
  /* start.                                                                 */
  /* Note: This configuration keeps the hardware feature of parameter       */
  /*       ExternalTrigConvEdge "trigger edge none" equivalent to           */
  /*       software start.                                                  */
  if(hadc->Init.ExternalTrigConv != ADC_SOFTWARE_START)
 800189a:	687b      	ldr	r3, [r7, #4]
 800189c:	6a9b      	ldr	r3, [r3, #40]	; 0x28
 800189e:	4a58      	ldr	r2, [pc, #352]	; (8001a00 <ADC_Init+0x1f4>)
 80018a0:	4293      	cmp	r3, r2
 80018a2:	d022      	beq.n	80018ea <ADC_Init+0xde>
  {
    /* Select external trigger to start conversion */
    hadc->Instance->CR2 &= ~(ADC_CR2_EXTSEL);
 80018a4:	687b      	ldr	r3, [r7, #4]
 80018a6:	681b      	ldr	r3, [r3, #0]
 80018a8:	689a      	ldr	r2, [r3, #8]
 80018aa:	687b      	ldr	r3, [r7, #4]
 80018ac:	681b      	ldr	r3, [r3, #0]
 80018ae:	f022 6270 	bic.w	r2, r2, #251658240	; 0xf000000
 80018b2:	609a      	str	r2, [r3, #8]
    hadc->Instance->CR2 |= hadc->Init.ExternalTrigConv;
 80018b4:	687b      	ldr	r3, [r7, #4]
 80018b6:	681b      	ldr	r3, [r3, #0]
 80018b8:	6899      	ldr	r1, [r3, #8]
 80018ba:	687b      	ldr	r3, [r7, #4]
 80018bc:	6a9a      	ldr	r2, [r3, #40]	; 0x28
 80018be:	687b      	ldr	r3, [r7, #4]
 80018c0:	681b      	ldr	r3, [r3, #0]
 80018c2:	430a      	orrs	r2, r1
 80018c4:	609a      	str	r2, [r3, #8]
    
    /* Select external trigger polarity */
    hadc->Instance->CR2 &= ~(ADC_CR2_EXTEN);
 80018c6:	687b      	ldr	r3, [r7, #4]
 80018c8:	681b      	ldr	r3, [r3, #0]
 80018ca:	689a      	ldr	r2, [r3, #8]
 80018cc:	687b      	ldr	r3, [r7, #4]
 80018ce:	681b      	ldr	r3, [r3, #0]
 80018d0:	f022 5240 	bic.w	r2, r2, #805306368	; 0x30000000
 80018d4:	609a      	str	r2, [r3, #8]
    hadc->Instance->CR2 |= hadc->Init.ExternalTrigConvEdge;
 80018d6:	687b      	ldr	r3, [r7, #4]
 80018d8:	681b      	ldr	r3, [r3, #0]
 80018da:	6899      	ldr	r1, [r3, #8]
 80018dc:	687b      	ldr	r3, [r7, #4]
 80018de:	6ada      	ldr	r2, [r3, #44]	; 0x2c
 80018e0:	687b      	ldr	r3, [r7, #4]
 80018e2:	681b      	ldr	r3, [r3, #0]
 80018e4:	430a      	orrs	r2, r1
 80018e6:	609a      	str	r2, [r3, #8]
 80018e8:	e00f      	b.n	800190a <ADC_Init+0xfe>
  }
  else
  {
    /* Reset the external trigger */
    hadc->Instance->CR2 &= ~(ADC_CR2_EXTSEL);
 80018ea:	687b      	ldr	r3, [r7, #4]
 80018ec:	681b      	ldr	r3, [r3, #0]
 80018ee:	689a      	ldr	r2, [r3, #8]
 80018f0:	687b      	ldr	r3, [r7, #4]
 80018f2:	681b      	ldr	r3, [r3, #0]
 80018f4:	f022 6270 	bic.w	r2, r2, #251658240	; 0xf000000
 80018f8:	609a      	str	r2, [r3, #8]
    hadc->Instance->CR2 &= ~(ADC_CR2_EXTEN);
 80018fa:	687b      	ldr	r3, [r7, #4]
 80018fc:	681b      	ldr	r3, [r3, #0]
 80018fe:	689a      	ldr	r2, [r3, #8]
 8001900:	687b      	ldr	r3, [r7, #4]
 8001902:	681b      	ldr	r3, [r3, #0]
 8001904:	f022 5240 	bic.w	r2, r2, #805306368	; 0x30000000
 8001908:	609a      	str	r2, [r3, #8]
  }
  
  /* Enable or disable ADC continuous conversion mode */
  hadc->Instance->CR2 &= ~(ADC_CR2_CONT);
 800190a:	687b      	ldr	r3, [r7, #4]
 800190c:	681b      	ldr	r3, [r3, #0]
 800190e:	689a      	ldr	r2, [r3, #8]
 8001910:	687b      	ldr	r3, [r7, #4]
 8001912:	681b      	ldr	r3, [r3, #0]
 8001914:	f022 0202 	bic.w	r2, r2, #2
 8001918:	609a      	str	r2, [r3, #8]
  hadc->Instance->CR2 |= ADC_CR2_CONTINUOUS((uint32_t)hadc->Init.ContinuousConvMode);
 800191a:	687b      	ldr	r3, [r7, #4]
 800191c:	681b      	ldr	r3, [r3, #0]
 800191e:	6899      	ldr	r1, [r3, #8]
 8001920:	687b      	ldr	r3, [r7, #4]
 8001922:	7e1b      	ldrb	r3, [r3, #24]
 8001924:	005a      	lsls	r2, r3, #1
 8001926:	687b      	ldr	r3, [r7, #4]
 8001928:	681b      	ldr	r3, [r3, #0]
 800192a:	430a      	orrs	r2, r1
 800192c:	609a      	str	r2, [r3, #8]
  
  if(hadc->Init.DiscontinuousConvMode != DISABLE)
 800192e:	687b      	ldr	r3, [r7, #4]
 8001930:	f893 3020 	ldrb.w	r3, [r3, #32]
 8001934:	2b00      	cmp	r3, #0
 8001936:	d01b      	beq.n	8001970 <ADC_Init+0x164>
  {
    assert_param(IS_ADC_REGULAR_DISC_NUMBER(hadc->Init.NbrOfDiscConversion));
  
    /* Enable the selected ADC regular discontinuous mode */
    hadc->Instance->CR1 |= (uint32_t)ADC_CR1_DISCEN;
 8001938:	687b      	ldr	r3, [r7, #4]
 800193a:	681b      	ldr	r3, [r3, #0]
 800193c:	685a      	ldr	r2, [r3, #4]
 800193e:	687b      	ldr	r3, [r7, #4]
 8001940:	681b      	ldr	r3, [r3, #0]
 8001942:	f442 6200 	orr.w	r2, r2, #2048	; 0x800
 8001946:	605a      	str	r2, [r3, #4]
    
    /* Set the number of channels to be converted in discontinuous mode */
    hadc->Instance->CR1 &= ~(ADC_CR1_DISCNUM);
 8001948:	687b      	ldr	r3, [r7, #4]
 800194a:	681b      	ldr	r3, [r3, #0]
 800194c:	685a      	ldr	r2, [r3, #4]
 800194e:	687b      	ldr	r3, [r7, #4]
 8001950:	681b      	ldr	r3, [r3, #0]
 8001952:	f422 4260 	bic.w	r2, r2, #57344	; 0xe000
 8001956:	605a      	str	r2, [r3, #4]
    hadc->Instance->CR1 |=  ADC_CR1_DISCONTINUOUS(hadc->Init.NbrOfDiscConversion);
 8001958:	687b      	ldr	r3, [r7, #4]
 800195a:	681b      	ldr	r3, [r3, #0]
 800195c:	6859      	ldr	r1, [r3, #4]
 800195e:	687b      	ldr	r3, [r7, #4]
 8001960:	6a5b      	ldr	r3, [r3, #36]	; 0x24
 8001962:	3b01      	subs	r3, #1
 8001964:	035a      	lsls	r2, r3, #13
 8001966:	687b      	ldr	r3, [r7, #4]
 8001968:	681b      	ldr	r3, [r3, #0]
 800196a:	430a      	orrs	r2, r1
 800196c:	605a      	str	r2, [r3, #4]
 800196e:	e007      	b.n	8001980 <ADC_Init+0x174>
  }
  else
  {
    /* Disable the selected ADC regular discontinuous mode */
    hadc->Instance->CR1 &= ~(ADC_CR1_DISCEN);
 8001970:	687b      	ldr	r3, [r7, #4]
 8001972:	681b      	ldr	r3, [r3, #0]
 8001974:	685a      	ldr	r2, [r3, #4]
 8001976:	687b      	ldr	r3, [r7, #4]
 8001978:	681b      	ldr	r3, [r3, #0]
 800197a:	f422 6200 	bic.w	r2, r2, #2048	; 0x800
 800197e:	605a      	str	r2, [r3, #4]
  }
  
  /* Set ADC number of conversion */
  hadc->Instance->SQR1 &= ~(ADC_SQR1_L);
 8001980:	687b      	ldr	r3, [r7, #4]
 8001982:	681b      	ldr	r3, [r3, #0]
 8001984:	6ada      	ldr	r2, [r3, #44]	; 0x2c
 8001986:	687b      	ldr	r3, [r7, #4]
 8001988:	681b      	ldr	r3, [r3, #0]
 800198a:	f422 0270 	bic.w	r2, r2, #15728640	; 0xf00000
 800198e:	62da      	str	r2, [r3, #44]	; 0x2c
  hadc->Instance->SQR1 |=  ADC_SQR1(hadc->Init.NbrOfConversion);
 8001990:	687b      	ldr	r3, [r7, #4]
 8001992:	681b      	ldr	r3, [r3, #0]
 8001994:	6ad9      	ldr	r1, [r3, #44]	; 0x2c
 8001996:	687b      	ldr	r3, [r7, #4]
 8001998:	69db      	ldr	r3, [r3, #28]
 800199a:	3b01      	subs	r3, #1
 800199c:	051a      	lsls	r2, r3, #20
 800199e:	687b      	ldr	r3, [r7, #4]
 80019a0:	681b      	ldr	r3, [r3, #0]
 80019a2:	430a      	orrs	r2, r1
 80019a4:	62da      	str	r2, [r3, #44]	; 0x2c
  
  /* Enable or disable ADC DMA continuous request */
  hadc->Instance->CR2 &= ~(ADC_CR2_DDS);
 80019a6:	687b      	ldr	r3, [r7, #4]
 80019a8:	681b      	ldr	r3, [r3, #0]
 80019aa:	689a      	ldr	r2, [r3, #8]
 80019ac:	687b      	ldr	r3, [r7, #4]
 80019ae:	681b      	ldr	r3, [r3, #0]
 80019b0:	f422 7200 	bic.w	r2, r2, #512	; 0x200
 80019b4:	609a      	str	r2, [r3, #8]
  hadc->Instance->CR2 |= ADC_CR2_DMAContReq((uint32_t)hadc->Init.DMAContinuousRequests);
 80019b6:	687b      	ldr	r3, [r7, #4]
 80019b8:	681b      	ldr	r3, [r3, #0]
 80019ba:	6899      	ldr	r1, [r3, #8]
 80019bc:	687b      	ldr	r3, [r7, #4]
 80019be:	f893 3030 	ldrb.w	r3, [r3, #48]	; 0x30
 80019c2:	025a      	lsls	r2, r3, #9
 80019c4:	687b      	ldr	r3, [r7, #4]
 80019c6:	681b      	ldr	r3, [r3, #0]
 80019c8:	430a      	orrs	r2, r1
 80019ca:	609a      	str	r2, [r3, #8]
  
  /* Enable or disable ADC end of conversion selection */
  hadc->Instance->CR2 &= ~(ADC_CR2_EOCS);
 80019cc:	687b      	ldr	r3, [r7, #4]
 80019ce:	681b      	ldr	r3, [r3, #0]
 80019d0:	689a      	ldr	r2, [r3, #8]
 80019d2:	687b      	ldr	r3, [r7, #4]
 80019d4:	681b      	ldr	r3, [r3, #0]
 80019d6:	f422 6280 	bic.w	r2, r2, #1024	; 0x400
 80019da:	609a      	str	r2, [r3, #8]
  hadc->Instance->CR2 |= ADC_CR2_EOCSelection(hadc->Init.EOCSelection);
 80019dc:	687b      	ldr	r3, [r7, #4]
 80019de:	681b      	ldr	r3, [r3, #0]
 80019e0:	6899      	ldr	r1, [r3, #8]
 80019e2:	687b      	ldr	r3, [r7, #4]
 80019e4:	695b      	ldr	r3, [r3, #20]
 80019e6:	029a      	lsls	r2, r3, #10
 80019e8:	687b      	ldr	r3, [r7, #4]
 80019ea:	681b      	ldr	r3, [r3, #0]
 80019ec:	430a      	orrs	r2, r1
 80019ee:	609a      	str	r2, [r3, #8]
}
 80019f0:	bf00      	nop
 80019f2:	3714      	adds	r7, #20
 80019f4:	46bd      	mov	sp, r7
 80019f6:	f85d 7b04 	ldr.w	r7, [sp], #4
 80019fa:	4770      	bx	lr
 80019fc:	40012300 	.word	0x40012300
 8001a00:	0f000001 	.word	0x0f000001

08001a04 <__NVIC_SetPriorityGrouping>:
{
 8001a04:	b480      	push	{r7}
 8001a06:	b085      	sub	sp, #20
 8001a08:	af00      	add	r7, sp, #0
 8001a0a:	6078      	str	r0, [r7, #4]
  uint32_t PriorityGroupTmp = (PriorityGroup & (uint32_t)0x07UL);             /* only values 0..7 are used          */
 8001a0c:	687b      	ldr	r3, [r7, #4]
 8001a0e:	f003 0307 	and.w	r3, r3, #7
 8001a12:	60fb      	str	r3, [r7, #12]
  reg_value  =  SCB->AIRCR;                                                   /* read old register configuration    */
 8001a14:	4b0c      	ldr	r3, [pc, #48]	; (8001a48 <__NVIC_SetPriorityGrouping+0x44>)
 8001a16:	68db      	ldr	r3, [r3, #12]
 8001a18:	60bb      	str	r3, [r7, #8]
  reg_value &= ~((uint32_t)(SCB_AIRCR_VECTKEY_Msk | SCB_AIRCR_PRIGROUP_Msk)); /* clear bits to change               */
 8001a1a:	68ba      	ldr	r2, [r7, #8]
 8001a1c:	f64f 03ff 	movw	r3, #63743	; 0xf8ff
 8001a20:	4013      	ands	r3, r2
 8001a22:	60bb      	str	r3, [r7, #8]
                (PriorityGroupTmp << SCB_AIRCR_PRIGROUP_Pos)  );              /* Insert write key and priority group */
 8001a24:	68fb      	ldr	r3, [r7, #12]
 8001a26:	021a      	lsls	r2, r3, #8
                ((uint32_t)0x5FAUL << SCB_AIRCR_VECTKEY_Pos) |
 8001a28:	68bb      	ldr	r3, [r7, #8]
 8001a2a:	4313      	orrs	r3, r2
  reg_value  =  (reg_value                                   |
 8001a2c:	f043 63bf 	orr.w	r3, r3, #100139008	; 0x5f80000
 8001a30:	f443 3300 	orr.w	r3, r3, #131072	; 0x20000
 8001a34:	60bb      	str	r3, [r7, #8]
  SCB->AIRCR =  reg_value;
 8001a36:	4a04      	ldr	r2, [pc, #16]	; (8001a48 <__NVIC_SetPriorityGrouping+0x44>)
 8001a38:	68bb      	ldr	r3, [r7, #8]
 8001a3a:	60d3      	str	r3, [r2, #12]
}
 8001a3c:	bf00      	nop
 8001a3e:	3714      	adds	r7, #20
 8001a40:	46bd      	mov	sp, r7
 8001a42:	f85d 7b04 	ldr.w	r7, [sp], #4
 8001a46:	4770      	bx	lr
 8001a48:	e000ed00 	.word	0xe000ed00

08001a4c <__NVIC_GetPriorityGrouping>:
{
 8001a4c:	b480      	push	{r7}
 8001a4e:	af00      	add	r7, sp, #0
  return ((uint32_t)((SCB->AIRCR & SCB_AIRCR_PRIGROUP_Msk) >> SCB_AIRCR_PRIGROUP_Pos));
 8001a50:	4b04      	ldr	r3, [pc, #16]	; (8001a64 <__NVIC_GetPriorityGrouping+0x18>)
 8001a52:	68db      	ldr	r3, [r3, #12]
 8001a54:	0a1b      	lsrs	r3, r3, #8
 8001a56:	f003 0307 	and.w	r3, r3, #7
}
 8001a5a:	4618      	mov	r0, r3
 8001a5c:	46bd      	mov	sp, r7
 8001a5e:	f85d 7b04 	ldr.w	r7, [sp], #4
 8001a62:	4770      	bx	lr
 8001a64:	e000ed00 	.word	0xe000ed00

08001a68 <__NVIC_SetPriority>:
{
 8001a68:	b480      	push	{r7}
 8001a6a:	b083      	sub	sp, #12
 8001a6c:	af00      	add	r7, sp, #0
 8001a6e:	4603      	mov	r3, r0
 8001a70:	6039      	str	r1, [r7, #0]
 8001a72:	71fb      	strb	r3, [r7, #7]
  if ((int32_t)(IRQn) >= 0)
 8001a74:	f997 3007 	ldrsb.w	r3, [r7, #7]
 8001a78:	2b00      	cmp	r3, #0
 8001a7a:	db0a      	blt.n	8001a92 <__NVIC_SetPriority+0x2a>
    NVIC->IP[((uint32_t)IRQn)]               = (uint8_t)((priority << (8U - __NVIC_PRIO_BITS)) & (uint32_t)0xFFUL);
 8001a7c:	683b      	ldr	r3, [r7, #0]
 8001a7e:	b2da      	uxtb	r2, r3
 8001a80:	490c      	ldr	r1, [pc, #48]	; (8001ab4 <__NVIC_SetPriority+0x4c>)
 8001a82:	f997 3007 	ldrsb.w	r3, [r7, #7]
 8001a86:	0112      	lsls	r2, r2, #4
 8001a88:	b2d2      	uxtb	r2, r2
 8001a8a:	440b      	add	r3, r1
 8001a8c:	f883 2300 	strb.w	r2, [r3, #768]	; 0x300
}
 8001a90:	e00a      	b.n	8001aa8 <__NVIC_SetPriority+0x40>
    SCB->SHP[(((uint32_t)IRQn) & 0xFUL)-4UL] = (uint8_t)((priority << (8U - __NVIC_PRIO_BITS)) & (uint32_t)0xFFUL);
 8001a92:	683b      	ldr	r3, [r7, #0]
 8001a94:	b2da      	uxtb	r2, r3
 8001a96:	4908      	ldr	r1, [pc, #32]	; (8001ab8 <__NVIC_SetPriority+0x50>)
 8001a98:	79fb      	ldrb	r3, [r7, #7]
 8001a9a:	f003 030f 	and.w	r3, r3, #15
 8001a9e:	3b04      	subs	r3, #4
 8001aa0:	0112      	lsls	r2, r2, #4
 8001aa2:	b2d2      	uxtb	r2, r2
 8001aa4:	440b      	add	r3, r1
 8001aa6:	761a      	strb	r2, [r3, #24]
}
 8001aa8:	bf00      	nop
 8001aaa:	370c      	adds	r7, #12
 8001aac:	46bd      	mov	sp, r7
 8001aae:	f85d 7b04 	ldr.w	r7, [sp], #4
 8001ab2:	4770      	bx	lr
 8001ab4:	e000e100 	.word	0xe000e100
 8001ab8:	e000ed00 	.word	0xe000ed00

08001abc <NVIC_EncodePriority>:
{
 8001abc:	b480      	push	{r7}
 8001abe:	b089      	sub	sp, #36	; 0x24
 8001ac0:	af00      	add	r7, sp, #0
 8001ac2:	60f8      	str	r0, [r7, #12]
 8001ac4:	60b9      	str	r1, [r7, #8]
 8001ac6:	607a      	str	r2, [r7, #4]
  uint32_t PriorityGroupTmp = (PriorityGroup & (uint32_t)0x07UL);   /* only values 0..7 are used          */
 8001ac8:	68fb      	ldr	r3, [r7, #12]
 8001aca:	f003 0307 	and.w	r3, r3, #7
 8001ace:	61fb      	str	r3, [r7, #28]
  PreemptPriorityBits = ((7UL - PriorityGroupTmp) > (uint32_t)(__NVIC_PRIO_BITS)) ? (uint32_t)(__NVIC_PRIO_BITS) : (uint32_t)(7UL - PriorityGroupTmp);
 8001ad0:	69fb      	ldr	r3, [r7, #28]
 8001ad2:	f1c3 0307 	rsb	r3, r3, #7
 8001ad6:	2b04      	cmp	r3, #4
 8001ad8:	bf28      	it	cs
 8001ada:	2304      	movcs	r3, #4
 8001adc:	61bb      	str	r3, [r7, #24]
  SubPriorityBits     = ((PriorityGroupTmp + (uint32_t)(__NVIC_PRIO_BITS)) < (uint32_t)7UL) ? (uint32_t)0UL : (uint32_t)((PriorityGroupTmp - 7UL) + (uint32_t)(__NVIC_PRIO_BITS));
 8001ade:	69fb      	ldr	r3, [r7, #28]
 8001ae0:	3304      	adds	r3, #4
 8001ae2:	2b06      	cmp	r3, #6
 8001ae4:	d902      	bls.n	8001aec <NVIC_EncodePriority+0x30>
 8001ae6:	69fb      	ldr	r3, [r7, #28]
 8001ae8:	3b03      	subs	r3, #3
 8001aea:	e000      	b.n	8001aee <NVIC_EncodePriority+0x32>
 8001aec:	2300      	movs	r3, #0
 8001aee:	617b      	str	r3, [r7, #20]
           ((PreemptPriority & (uint32_t)((1UL << (PreemptPriorityBits)) - 1UL)) << SubPriorityBits) |
 8001af0:	f04f 32ff 	mov.w	r2, #4294967295
 8001af4:	69bb      	ldr	r3, [r7, #24]
 8001af6:	fa02 f303 	lsl.w	r3, r2, r3
 8001afa:	43da      	mvns	r2, r3
 8001afc:	68bb      	ldr	r3, [r7, #8]
 8001afe:	401a      	ands	r2, r3
 8001b00:	697b      	ldr	r3, [r7, #20]
 8001b02:	409a      	lsls	r2, r3
           ((SubPriority     & (uint32_t)((1UL << (SubPriorityBits    )) - 1UL)))
 8001b04:	f04f 31ff 	mov.w	r1, #4294967295
 8001b08:	697b      	ldr	r3, [r7, #20]
 8001b0a:	fa01 f303 	lsl.w	r3, r1, r3
 8001b0e:	43d9      	mvns	r1, r3
 8001b10:	687b      	ldr	r3, [r7, #4]
 8001b12:	400b      	ands	r3, r1
           ((PreemptPriority & (uint32_t)((1UL << (PreemptPriorityBits)) - 1UL)) << SubPriorityBits) |
 8001b14:	4313      	orrs	r3, r2
}
 8001b16:	4618      	mov	r0, r3
 8001b18:	3724      	adds	r7, #36	; 0x24
 8001b1a:	46bd      	mov	sp, r7
 8001b1c:	f85d 7b04 	ldr.w	r7, [sp], #4
 8001b20:	4770      	bx	lr
	...

08001b24 <SysTick_Config>:
{
 8001b24:	b580      	push	{r7, lr}
 8001b26:	b082      	sub	sp, #8
 8001b28:	af00      	add	r7, sp, #0
 8001b2a:	6078      	str	r0, [r7, #4]
  if ((ticks - 1UL) > SysTick_LOAD_RELOAD_Msk)
 8001b2c:	687b      	ldr	r3, [r7, #4]
 8001b2e:	3b01      	subs	r3, #1
 8001b30:	f1b3 7f80 	cmp.w	r3, #16777216	; 0x1000000
 8001b34:	d301      	bcc.n	8001b3a <SysTick_Config+0x16>
    return (1UL);                                                   /* Reload value impossible */
 8001b36:	2301      	movs	r3, #1
 8001b38:	e00f      	b.n	8001b5a <SysTick_Config+0x36>
  SysTick->LOAD  = (uint32_t)(ticks - 1UL);                         /* set reload register */
 8001b3a:	4a0a      	ldr	r2, [pc, #40]	; (8001b64 <SysTick_Config+0x40>)
 8001b3c:	687b      	ldr	r3, [r7, #4]
 8001b3e:	3b01      	subs	r3, #1
 8001b40:	6053      	str	r3, [r2, #4]
  NVIC_SetPriority (SysTick_IRQn, (1UL << __NVIC_PRIO_BITS) - 1UL); /* set Priority for Systick Interrupt */
 8001b42:	210f      	movs	r1, #15
 8001b44:	f04f 30ff 	mov.w	r0, #4294967295
 8001b48:	f7ff ff8e 	bl	8001a68 <__NVIC_SetPriority>
  SysTick->VAL   = 0UL;                                             /* Load the SysTick Counter Value */
 8001b4c:	4b05      	ldr	r3, [pc, #20]	; (8001b64 <SysTick_Config+0x40>)
 8001b4e:	2200      	movs	r2, #0
 8001b50:	609a      	str	r2, [r3, #8]
  SysTick->CTRL  = SysTick_CTRL_CLKSOURCE_Msk |
 8001b52:	4b04      	ldr	r3, [pc, #16]	; (8001b64 <SysTick_Config+0x40>)
 8001b54:	2207      	movs	r2, #7
 8001b56:	601a      	str	r2, [r3, #0]
  return (0UL);                                                     /* Function successful */
 8001b58:	2300      	movs	r3, #0
}
 8001b5a:	4618      	mov	r0, r3
 8001b5c:	3708      	adds	r7, #8
 8001b5e:	46bd      	mov	sp, r7
 8001b60:	bd80      	pop	{r7, pc}
 8001b62:	bf00      	nop
 8001b64:	e000e010 	.word	0xe000e010

08001b68 <HAL_NVIC_SetPriorityGrouping>:
  * @note   When the NVIC_PriorityGroup_0 is selected, IRQ preemption is no more possible. 
  *         The pending IRQ priority will be managed only by the subpriority. 
  * @retval None
  */
void HAL_NVIC_SetPriorityGrouping(uint32_t PriorityGroup)
{
 8001b68:	b580      	push	{r7, lr}
 8001b6a:	b082      	sub	sp, #8
 8001b6c:	af00      	add	r7, sp, #0
 8001b6e:	6078      	str	r0, [r7, #4]
  /* Check the parameters */
  assert_param(IS_NVIC_PRIORITY_GROUP(PriorityGroup));
  
  /* Set the PRIGROUP[10:8] bits according to the PriorityGroup parameter value */
  NVIC_SetPriorityGrouping(PriorityGroup);
 8001b70:	6878      	ldr	r0, [r7, #4]
 8001b72:	f7ff ff47 	bl	8001a04 <__NVIC_SetPriorityGrouping>
}
 8001b76:	bf00      	nop
 8001b78:	3708      	adds	r7, #8
 8001b7a:	46bd      	mov	sp, r7
 8001b7c:	bd80      	pop	{r7, pc}

08001b7e <HAL_NVIC_SetPriority>:
  *         This parameter can be a value between 0 and 15
  *         A lower priority value indicates a higher priority.          
  * @retval None
  */
void HAL_NVIC_SetPriority(IRQn_Type IRQn, uint32_t PreemptPriority, uint32_t SubPriority)
{ 
 8001b7e:	b580      	push	{r7, lr}
 8001b80:	b086      	sub	sp, #24
 8001b82:	af00      	add	r7, sp, #0
 8001b84:	4603      	mov	r3, r0
 8001b86:	60b9      	str	r1, [r7, #8]
 8001b88:	607a      	str	r2, [r7, #4]
 8001b8a:	73fb      	strb	r3, [r7, #15]
  uint32_t prioritygroup = 0x00U;
 8001b8c:	2300      	movs	r3, #0
 8001b8e:	617b      	str	r3, [r7, #20]
  
  /* Check the parameters */
  assert_param(IS_NVIC_SUB_PRIORITY(SubPriority));
  assert_param(IS_NVIC_PREEMPTION_PRIORITY(PreemptPriority));
  
  prioritygroup = NVIC_GetPriorityGrouping();
 8001b90:	f7ff ff5c 	bl	8001a4c <__NVIC_GetPriorityGrouping>
 8001b94:	6178      	str	r0, [r7, #20]
  
  NVIC_SetPriority(IRQn, NVIC_EncodePriority(prioritygroup, PreemptPriority, SubPriority));
 8001b96:	687a      	ldr	r2, [r7, #4]
 8001b98:	68b9      	ldr	r1, [r7, #8]
 8001b9a:	6978      	ldr	r0, [r7, #20]
 8001b9c:	f7ff ff8e 	bl	8001abc <NVIC_EncodePriority>
 8001ba0:	4602      	mov	r2, r0
 8001ba2:	f997 300f 	ldrsb.w	r3, [r7, #15]
 8001ba6:	4611      	mov	r1, r2
 8001ba8:	4618      	mov	r0, r3
 8001baa:	f7ff ff5d 	bl	8001a68 <__NVIC_SetPriority>
}
 8001bae:	bf00      	nop
 8001bb0:	3718      	adds	r7, #24
 8001bb2:	46bd      	mov	sp, r7
 8001bb4:	bd80      	pop	{r7, pc}

08001bb6 <HAL_SYSTICK_Config>:
  * @param  TicksNumb Specifies the ticks Number of ticks between two interrupts.
  * @retval status:  - 0  Function succeeded.
  *                  - 1  Function failed.
  */
uint32_t HAL_SYSTICK_Config(uint32_t TicksNumb)
{
 8001bb6:	b580      	push	{r7, lr}
 8001bb8:	b082      	sub	sp, #8
 8001bba:	af00      	add	r7, sp, #0
 8001bbc:	6078      	str	r0, [r7, #4]
   return SysTick_Config(TicksNumb);
 8001bbe:	6878      	ldr	r0, [r7, #4]
 8001bc0:	f7ff ffb0 	bl	8001b24 <SysTick_Config>
 8001bc4:	4603      	mov	r3, r0
}
 8001bc6:	4618      	mov	r0, r3
 8001bc8:	3708      	adds	r7, #8
 8001bca:	46bd      	mov	sp, r7
 8001bcc:	bd80      	pop	{r7, pc}
	...

08001bd0 <HAL_GPIO_Init>:
  * @param  GPIO_Init pointer to a GPIO_InitTypeDef structure that contains
  *         the configuration information for the specified GPIO peripheral.
  * @retval None
  */
void HAL_GPIO_Init(GPIO_TypeDef  *GPIOx, GPIO_InitTypeDef *GPIO_Init)
{
 8001bd0:	b480      	push	{r7}
 8001bd2:	b089      	sub	sp, #36	; 0x24
 8001bd4:	af00      	add	r7, sp, #0
 8001bd6:	6078      	str	r0, [r7, #4]
 8001bd8:	6039      	str	r1, [r7, #0]
  uint32_t position;
  uint32_t ioposition = 0x00U;
 8001bda:	2300      	movs	r3, #0
 8001bdc:	617b      	str	r3, [r7, #20]
  uint32_t iocurrent = 0x00U;
 8001bde:	2300      	movs	r3, #0
 8001be0:	613b      	str	r3, [r7, #16]
  uint32_t temp = 0x00U;
 8001be2:	2300      	movs	r3, #0
 8001be4:	61bb      	str	r3, [r7, #24]
  assert_param(IS_GPIO_PIN(GPIO_Init->Pin));
  assert_param(IS_GPIO_MODE(GPIO_Init->Mode));
  assert_param(IS_GPIO_PULL(GPIO_Init->Pull));

  /* Configure the port pins */
  for(position = 0U; position < GPIO_NUMBER; position++)
 8001be6:	2300      	movs	r3, #0
 8001be8:	61fb      	str	r3, [r7, #28]
 8001bea:	e159      	b.n	8001ea0 <HAL_GPIO_Init+0x2d0>
  {
    /* Get the IO position */
    ioposition = 0x01U << position;
 8001bec:	2201      	movs	r2, #1
 8001bee:	69fb      	ldr	r3, [r7, #28]
 8001bf0:	fa02 f303 	lsl.w	r3, r2, r3
 8001bf4:	617b      	str	r3, [r7, #20]
    /* Get the current IO position */
    iocurrent = (uint32_t)(GPIO_Init->Pin) & ioposition;
 8001bf6:	683b      	ldr	r3, [r7, #0]
 8001bf8:	681b      	ldr	r3, [r3, #0]
 8001bfa:	697a      	ldr	r2, [r7, #20]
 8001bfc:	4013      	ands	r3, r2
 8001bfe:	613b      	str	r3, [r7, #16]

    if(iocurrent == ioposition)
 8001c00:	693a      	ldr	r2, [r7, #16]
 8001c02:	697b      	ldr	r3, [r7, #20]
 8001c04:	429a      	cmp	r2, r3
 8001c06:	f040 8148 	bne.w	8001e9a <HAL_GPIO_Init+0x2ca>
    {
      /*--------------------- GPIO Mode Configuration ------------------------*/
      /* In case of Output or Alternate function mode selection */
      if((GPIO_Init->Mode == GPIO_MODE_OUTPUT_PP) || (GPIO_Init->Mode == GPIO_MODE_AF_PP) ||
 8001c0a:	683b      	ldr	r3, [r7, #0]
 8001c0c:	685b      	ldr	r3, [r3, #4]
 8001c0e:	2b01      	cmp	r3, #1
 8001c10:	d00b      	beq.n	8001c2a <HAL_GPIO_Init+0x5a>
 8001c12:	683b      	ldr	r3, [r7, #0]
 8001c14:	685b      	ldr	r3, [r3, #4]
 8001c16:	2b02      	cmp	r3, #2
 8001c18:	d007      	beq.n	8001c2a <HAL_GPIO_Init+0x5a>
         (GPIO_Init->Mode == GPIO_MODE_OUTPUT_OD) || (GPIO_Init->Mode == GPIO_MODE_AF_OD))
 8001c1a:	683b      	ldr	r3, [r7, #0]
 8001c1c:	685b      	ldr	r3, [r3, #4]
      if((GPIO_Init->Mode == GPIO_MODE_OUTPUT_PP) || (GPIO_Init->Mode == GPIO_MODE_AF_PP) ||
 8001c1e:	2b11      	cmp	r3, #17
 8001c20:	d003      	beq.n	8001c2a <HAL_GPIO_Init+0x5a>
         (GPIO_Init->Mode == GPIO_MODE_OUTPUT_OD) || (GPIO_Init->Mode == GPIO_MODE_AF_OD))
 8001c22:	683b      	ldr	r3, [r7, #0]
 8001c24:	685b      	ldr	r3, [r3, #4]
 8001c26:	2b12      	cmp	r3, #18
 8001c28:	d130      	bne.n	8001c8c <HAL_GPIO_Init+0xbc>
      {
        /* Check the Speed parameter */
        assert_param(IS_GPIO_SPEED(GPIO_Init->Speed));
        /* Configure the IO Speed */
        temp = GPIOx->OSPEEDR; 
 8001c2a:	687b      	ldr	r3, [r7, #4]
 8001c2c:	689b      	ldr	r3, [r3, #8]
 8001c2e:	61bb      	str	r3, [r7, #24]
        temp &= ~(GPIO_OSPEEDER_OSPEEDR0 << (position * 2U));
 8001c30:	69fb      	ldr	r3, [r7, #28]
 8001c32:	005b      	lsls	r3, r3, #1
 8001c34:	2203      	movs	r2, #3
 8001c36:	fa02 f303 	lsl.w	r3, r2, r3
 8001c3a:	43db      	mvns	r3, r3
 8001c3c:	69ba      	ldr	r2, [r7, #24]
 8001c3e:	4013      	ands	r3, r2
 8001c40:	61bb      	str	r3, [r7, #24]
        temp |= (GPIO_Init->Speed << (position * 2U));
 8001c42:	683b      	ldr	r3, [r7, #0]
 8001c44:	68da      	ldr	r2, [r3, #12]
 8001c46:	69fb      	ldr	r3, [r7, #28]
 8001c48:	005b      	lsls	r3, r3, #1
 8001c4a:	fa02 f303 	lsl.w	r3, r2, r3
 8001c4e:	69ba      	ldr	r2, [r7, #24]
 8001c50:	4313      	orrs	r3, r2
 8001c52:	61bb      	str	r3, [r7, #24]
        GPIOx->OSPEEDR = temp;
 8001c54:	687b      	ldr	r3, [r7, #4]
 8001c56:	69ba      	ldr	r2, [r7, #24]
 8001c58:	609a      	str	r2, [r3, #8]

        /* Configure the IO Output Type */
        temp = GPIOx->OTYPER;
 8001c5a:	687b      	ldr	r3, [r7, #4]
 8001c5c:	685b      	ldr	r3, [r3, #4]
 8001c5e:	61bb      	str	r3, [r7, #24]
        temp &= ~(GPIO_OTYPER_OT_0 << position) ;
 8001c60:	2201      	movs	r2, #1
 8001c62:	69fb      	ldr	r3, [r7, #28]
 8001c64:	fa02 f303 	lsl.w	r3, r2, r3
 8001c68:	43db      	mvns	r3, r3
 8001c6a:	69ba      	ldr	r2, [r7, #24]
 8001c6c:	4013      	ands	r3, r2
 8001c6e:	61bb      	str	r3, [r7, #24]
        temp |= (((GPIO_Init->Mode & GPIO_OUTPUT_TYPE) >> 4U) << position);
 8001c70:	683b      	ldr	r3, [r7, #0]
 8001c72:	685b      	ldr	r3, [r3, #4]
 8001c74:	091b      	lsrs	r3, r3, #4
 8001c76:	f003 0201 	and.w	r2, r3, #1
 8001c7a:	69fb      	ldr	r3, [r7, #28]
 8001c7c:	fa02 f303 	lsl.w	r3, r2, r3
 8001c80:	69ba      	ldr	r2, [r7, #24]
 8001c82:	4313      	orrs	r3, r2
 8001c84:	61bb      	str	r3, [r7, #24]
        GPIOx->OTYPER = temp;
 8001c86:	687b      	ldr	r3, [r7, #4]
 8001c88:	69ba      	ldr	r2, [r7, #24]
 8001c8a:	605a      	str	r2, [r3, #4]
       }

      /* Activate the Pull-up or Pull down resistor for the current IO */
      temp = GPIOx->PUPDR;
 8001c8c:	687b      	ldr	r3, [r7, #4]
 8001c8e:	68db      	ldr	r3, [r3, #12]
 8001c90:	61bb      	str	r3, [r7, #24]
      temp &= ~(GPIO_PUPDR_PUPDR0 << (position * 2U));
 8001c92:	69fb      	ldr	r3, [r7, #28]
 8001c94:	005b      	lsls	r3, r3, #1
 8001c96:	2203      	movs	r2, #3
 8001c98:	fa02 f303 	lsl.w	r3, r2, r3
 8001c9c:	43db      	mvns	r3, r3
 8001c9e:	69ba      	ldr	r2, [r7, #24]
 8001ca0:	4013      	ands	r3, r2
 8001ca2:	61bb      	str	r3, [r7, #24]
      temp |= ((GPIO_Init->Pull) << (position * 2U));
 8001ca4:	683b      	ldr	r3, [r7, #0]
 8001ca6:	689a      	ldr	r2, [r3, #8]
 8001ca8:	69fb      	ldr	r3, [r7, #28]
 8001caa:	005b      	lsls	r3, r3, #1
 8001cac:	fa02 f303 	lsl.w	r3, r2, r3
 8001cb0:	69ba      	ldr	r2, [r7, #24]
 8001cb2:	4313      	orrs	r3, r2
 8001cb4:	61bb      	str	r3, [r7, #24]
      GPIOx->PUPDR = temp;
 8001cb6:	687b      	ldr	r3, [r7, #4]
 8001cb8:	69ba      	ldr	r2, [r7, #24]
 8001cba:	60da      	str	r2, [r3, #12]

      /* In case of Alternate function mode selection */
      if((GPIO_Init->Mode == GPIO_MODE_AF_PP) || (GPIO_Init->Mode == GPIO_MODE_AF_OD))
 8001cbc:	683b      	ldr	r3, [r7, #0]
 8001cbe:	685b      	ldr	r3, [r3, #4]
 8001cc0:	2b02      	cmp	r3, #2
 8001cc2:	d003      	beq.n	8001ccc <HAL_GPIO_Init+0xfc>
 8001cc4:	683b      	ldr	r3, [r7, #0]
 8001cc6:	685b      	ldr	r3, [r3, #4]
 8001cc8:	2b12      	cmp	r3, #18
 8001cca:	d123      	bne.n	8001d14 <HAL_GPIO_Init+0x144>
      {
        /* Check the Alternate function parameter */
        assert_param(IS_GPIO_AF(GPIO_Init->Alternate));
        /* Configure Alternate function mapped with the current IO */
        temp = GPIOx->AFR[position >> 3U];
 8001ccc:	69fb      	ldr	r3, [r7, #28]
 8001cce:	08da      	lsrs	r2, r3, #3
 8001cd0:	687b      	ldr	r3, [r7, #4]
 8001cd2:	3208      	adds	r2, #8
 8001cd4:	f853 3022 	ldr.w	r3, [r3, r2, lsl #2]
 8001cd8:	61bb      	str	r3, [r7, #24]
        temp &= ~(0xFU << ((uint32_t)(position & 0x07U) * 4U)) ;
 8001cda:	69fb      	ldr	r3, [r7, #28]
 8001cdc:	f003 0307 	and.w	r3, r3, #7
 8001ce0:	009b      	lsls	r3, r3, #2
 8001ce2:	220f      	movs	r2, #15
 8001ce4:	fa02 f303 	lsl.w	r3, r2, r3
 8001ce8:	43db      	mvns	r3, r3
 8001cea:	69ba      	ldr	r2, [r7, #24]
 8001cec:	4013      	ands	r3, r2
 8001cee:	61bb      	str	r3, [r7, #24]
        temp |= ((uint32_t)(GPIO_Init->Alternate) << (((uint32_t)position & 0x07U) * 4U));
 8001cf0:	683b      	ldr	r3, [r7, #0]
 8001cf2:	691a      	ldr	r2, [r3, #16]
 8001cf4:	69fb      	ldr	r3, [r7, #28]
 8001cf6:	f003 0307 	and.w	r3, r3, #7
 8001cfa:	009b      	lsls	r3, r3, #2
 8001cfc:	fa02 f303 	lsl.w	r3, r2, r3
 8001d00:	69ba      	ldr	r2, [r7, #24]
 8001d02:	4313      	orrs	r3, r2
 8001d04:	61bb      	str	r3, [r7, #24]
        GPIOx->AFR[position >> 3U] = temp;
 8001d06:	69fb      	ldr	r3, [r7, #28]
 8001d08:	08da      	lsrs	r2, r3, #3
 8001d0a:	687b      	ldr	r3, [r7, #4]
 8001d0c:	3208      	adds	r2, #8
 8001d0e:	69b9      	ldr	r1, [r7, #24]
 8001d10:	f843 1022 	str.w	r1, [r3, r2, lsl #2]
      }

      /* Configure IO Direction mode (Input, Output, Alternate or Analog) */
      temp = GPIOx->MODER;
 8001d14:	687b      	ldr	r3, [r7, #4]
 8001d16:	681b      	ldr	r3, [r3, #0]
 8001d18:	61bb      	str	r3, [r7, #24]
      temp &= ~(GPIO_MODER_MODER0 << (position * 2U));
 8001d1a:	69fb      	ldr	r3, [r7, #28]
 8001d1c:	005b      	lsls	r3, r3, #1
 8001d1e:	2203      	movs	r2, #3
 8001d20:	fa02 f303 	lsl.w	r3, r2, r3
 8001d24:	43db      	mvns	r3, r3
 8001d26:	69ba      	ldr	r2, [r7, #24]
 8001d28:	4013      	ands	r3, r2
 8001d2a:	61bb      	str	r3, [r7, #24]
      temp |= ((GPIO_Init->Mode & GPIO_MODE) << (position * 2U));
 8001d2c:	683b      	ldr	r3, [r7, #0]
 8001d2e:	685b      	ldr	r3, [r3, #4]
 8001d30:	f003 0203 	and.w	r2, r3, #3
 8001d34:	69fb      	ldr	r3, [r7, #28]
 8001d36:	005b      	lsls	r3, r3, #1
 8001d38:	fa02 f303 	lsl.w	r3, r2, r3
 8001d3c:	69ba      	ldr	r2, [r7, #24]
 8001d3e:	4313      	orrs	r3, r2
 8001d40:	61bb      	str	r3, [r7, #24]
      GPIOx->MODER = temp;
 8001d42:	687b      	ldr	r3, [r7, #4]
 8001d44:	69ba      	ldr	r2, [r7, #24]
 8001d46:	601a      	str	r2, [r3, #0]

      /*--------------------- EXTI Mode Configuration ------------------------*/
      /* Configure the External Interrupt or event for the current IO */
      if((GPIO_Init->Mode & EXTI_MODE) == EXTI_MODE)
 8001d48:	683b      	ldr	r3, [r7, #0]
 8001d4a:	685b      	ldr	r3, [r3, #4]
 8001d4c:	f003 5380 	and.w	r3, r3, #268435456	; 0x10000000
 8001d50:	2b00      	cmp	r3, #0
 8001d52:	f000 80a2 	beq.w	8001e9a <HAL_GPIO_Init+0x2ca>
      {
        /* Enable SYSCFG Clock */
        __HAL_RCC_SYSCFG_CLK_ENABLE();
 8001d56:	2300      	movs	r3, #0
 8001d58:	60fb      	str	r3, [r7, #12]
 8001d5a:	4b56      	ldr	r3, [pc, #344]	; (8001eb4 <HAL_GPIO_Init+0x2e4>)
 8001d5c:	6c5b      	ldr	r3, [r3, #68]	; 0x44
 8001d5e:	4a55      	ldr	r2, [pc, #340]	; (8001eb4 <HAL_GPIO_Init+0x2e4>)
 8001d60:	f443 4380 	orr.w	r3, r3, #16384	; 0x4000
 8001d64:	6453      	str	r3, [r2, #68]	; 0x44
 8001d66:	4b53      	ldr	r3, [pc, #332]	; (8001eb4 <HAL_GPIO_Init+0x2e4>)
 8001d68:	6c5b      	ldr	r3, [r3, #68]	; 0x44
 8001d6a:	f403 4380 	and.w	r3, r3, #16384	; 0x4000
 8001d6e:	60fb      	str	r3, [r7, #12]
 8001d70:	68fb      	ldr	r3, [r7, #12]

        temp = SYSCFG->EXTICR[position >> 2U];
 8001d72:	4a51      	ldr	r2, [pc, #324]	; (8001eb8 <HAL_GPIO_Init+0x2e8>)
 8001d74:	69fb      	ldr	r3, [r7, #28]
 8001d76:	089b      	lsrs	r3, r3, #2
 8001d78:	3302      	adds	r3, #2
 8001d7a:	f852 3023 	ldr.w	r3, [r2, r3, lsl #2]
 8001d7e:	61bb      	str	r3, [r7, #24]
        temp &= ~(0x0FU << (4U * (position & 0x03U)));
 8001d80:	69fb      	ldr	r3, [r7, #28]
 8001d82:	f003 0303 	and.w	r3, r3, #3
 8001d86:	009b      	lsls	r3, r3, #2
 8001d88:	220f      	movs	r2, #15
 8001d8a:	fa02 f303 	lsl.w	r3, r2, r3
 8001d8e:	43db      	mvns	r3, r3
 8001d90:	69ba      	ldr	r2, [r7, #24]
 8001d92:	4013      	ands	r3, r2
 8001d94:	61bb      	str	r3, [r7, #24]
        temp |= ((uint32_t)(GPIO_GET_INDEX(GPIOx)) << (4U * (position & 0x03U)));
 8001d96:	687b      	ldr	r3, [r7, #4]
 8001d98:	4a48      	ldr	r2, [pc, #288]	; (8001ebc <HAL_GPIO_Init+0x2ec>)
 8001d9a:	4293      	cmp	r3, r2
 8001d9c:	d019      	beq.n	8001dd2 <HAL_GPIO_Init+0x202>
 8001d9e:	687b      	ldr	r3, [r7, #4]
 8001da0:	4a47      	ldr	r2, [pc, #284]	; (8001ec0 <HAL_GPIO_Init+0x2f0>)
 8001da2:	4293      	cmp	r3, r2
 8001da4:	d013      	beq.n	8001dce <HAL_GPIO_Init+0x1fe>
 8001da6:	687b      	ldr	r3, [r7, #4]
 8001da8:	4a46      	ldr	r2, [pc, #280]	; (8001ec4 <HAL_GPIO_Init+0x2f4>)
 8001daa:	4293      	cmp	r3, r2
 8001dac:	d00d      	beq.n	8001dca <HAL_GPIO_Init+0x1fa>
 8001dae:	687b      	ldr	r3, [r7, #4]
 8001db0:	4a45      	ldr	r2, [pc, #276]	; (8001ec8 <HAL_GPIO_Init+0x2f8>)
 8001db2:	4293      	cmp	r3, r2
 8001db4:	d007      	beq.n	8001dc6 <HAL_GPIO_Init+0x1f6>
 8001db6:	687b      	ldr	r3, [r7, #4]
 8001db8:	4a44      	ldr	r2, [pc, #272]	; (8001ecc <HAL_GPIO_Init+0x2fc>)
 8001dba:	4293      	cmp	r3, r2
 8001dbc:	d101      	bne.n	8001dc2 <HAL_GPIO_Init+0x1f2>
 8001dbe:	2304      	movs	r3, #4
 8001dc0:	e008      	b.n	8001dd4 <HAL_GPIO_Init+0x204>
 8001dc2:	2307      	movs	r3, #7
 8001dc4:	e006      	b.n	8001dd4 <HAL_GPIO_Init+0x204>
 8001dc6:	2303      	movs	r3, #3
 8001dc8:	e004      	b.n	8001dd4 <HAL_GPIO_Init+0x204>
 8001dca:	2302      	movs	r3, #2
 8001dcc:	e002      	b.n	8001dd4 <HAL_GPIO_Init+0x204>
 8001dce:	2301      	movs	r3, #1
 8001dd0:	e000      	b.n	8001dd4 <HAL_GPIO_Init+0x204>
 8001dd2:	2300      	movs	r3, #0
 8001dd4:	69fa      	ldr	r2, [r7, #28]
 8001dd6:	f002 0203 	and.w	r2, r2, #3
 8001dda:	0092      	lsls	r2, r2, #2
 8001ddc:	4093      	lsls	r3, r2
 8001dde:	69ba      	ldr	r2, [r7, #24]
 8001de0:	4313      	orrs	r3, r2
 8001de2:	61bb      	str	r3, [r7, #24]
        SYSCFG->EXTICR[position >> 2U] = temp;
 8001de4:	4934      	ldr	r1, [pc, #208]	; (8001eb8 <HAL_GPIO_Init+0x2e8>)
 8001de6:	69fb      	ldr	r3, [r7, #28]
 8001de8:	089b      	lsrs	r3, r3, #2
 8001dea:	3302      	adds	r3, #2
 8001dec:	69ba      	ldr	r2, [r7, #24]
 8001dee:	f841 2023 	str.w	r2, [r1, r3, lsl #2]

        /* Clear EXTI line configuration */
        temp = EXTI->IMR;
 8001df2:	4b37      	ldr	r3, [pc, #220]	; (8001ed0 <HAL_GPIO_Init+0x300>)
 8001df4:	681b      	ldr	r3, [r3, #0]
 8001df6:	61bb      	str	r3, [r7, #24]
        temp &= ~((uint32_t)iocurrent);
 8001df8:	693b      	ldr	r3, [r7, #16]
 8001dfa:	43db      	mvns	r3, r3
 8001dfc:	69ba      	ldr	r2, [r7, #24]
 8001dfe:	4013      	ands	r3, r2
 8001e00:	61bb      	str	r3, [r7, #24]
        if((GPIO_Init->Mode & GPIO_MODE_IT) == GPIO_MODE_IT)
 8001e02:	683b      	ldr	r3, [r7, #0]
 8001e04:	685b      	ldr	r3, [r3, #4]
 8001e06:	f403 3380 	and.w	r3, r3, #65536	; 0x10000
 8001e0a:	2b00      	cmp	r3, #0
 8001e0c:	d003      	beq.n	8001e16 <HAL_GPIO_Init+0x246>
        {
          temp |= iocurrent;
 8001e0e:	69ba      	ldr	r2, [r7, #24]
 8001e10:	693b      	ldr	r3, [r7, #16]
 8001e12:	4313      	orrs	r3, r2
 8001e14:	61bb      	str	r3, [r7, #24]
        }
        EXTI->IMR = temp;
 8001e16:	4a2e      	ldr	r2, [pc, #184]	; (8001ed0 <HAL_GPIO_Init+0x300>)
 8001e18:	69bb      	ldr	r3, [r7, #24]
 8001e1a:	6013      	str	r3, [r2, #0]

        temp = EXTI->EMR;
 8001e1c:	4b2c      	ldr	r3, [pc, #176]	; (8001ed0 <HAL_GPIO_Init+0x300>)
 8001e1e:	685b      	ldr	r3, [r3, #4]
 8001e20:	61bb      	str	r3, [r7, #24]
        temp &= ~((uint32_t)iocurrent);
 8001e22:	693b      	ldr	r3, [r7, #16]
 8001e24:	43db      	mvns	r3, r3
 8001e26:	69ba      	ldr	r2, [r7, #24]
 8001e28:	4013      	ands	r3, r2
 8001e2a:	61bb      	str	r3, [r7, #24]
        if((GPIO_Init->Mode & GPIO_MODE_EVT) == GPIO_MODE_EVT)
 8001e2c:	683b      	ldr	r3, [r7, #0]
 8001e2e:	685b      	ldr	r3, [r3, #4]
 8001e30:	f403 3300 	and.w	r3, r3, #131072	; 0x20000
 8001e34:	2b00      	cmp	r3, #0
 8001e36:	d003      	beq.n	8001e40 <HAL_GPIO_Init+0x270>
        {
          temp |= iocurrent;
 8001e38:	69ba      	ldr	r2, [r7, #24]
 8001e3a:	693b      	ldr	r3, [r7, #16]
 8001e3c:	4313      	orrs	r3, r2
 8001e3e:	61bb      	str	r3, [r7, #24]
        }
        EXTI->EMR = temp;
 8001e40:	4a23      	ldr	r2, [pc, #140]	; (8001ed0 <HAL_GPIO_Init+0x300>)
 8001e42:	69bb      	ldr	r3, [r7, #24]
 8001e44:	6053      	str	r3, [r2, #4]

        /* Clear Rising Falling edge configuration */
        temp = EXTI->RTSR;
 8001e46:	4b22      	ldr	r3, [pc, #136]	; (8001ed0 <HAL_GPIO_Init+0x300>)
 8001e48:	689b      	ldr	r3, [r3, #8]
 8001e4a:	61bb      	str	r3, [r7, #24]
        temp &= ~((uint32_t)iocurrent);
 8001e4c:	693b      	ldr	r3, [r7, #16]
 8001e4e:	43db      	mvns	r3, r3
 8001e50:	69ba      	ldr	r2, [r7, #24]
 8001e52:	4013      	ands	r3, r2
 8001e54:	61bb      	str	r3, [r7, #24]
        if((GPIO_Init->Mode & RISING_EDGE) == RISING_EDGE)
 8001e56:	683b      	ldr	r3, [r7, #0]
 8001e58:	685b      	ldr	r3, [r3, #4]
 8001e5a:	f403 1380 	and.w	r3, r3, #1048576	; 0x100000
 8001e5e:	2b00      	cmp	r3, #0
 8001e60:	d003      	beq.n	8001e6a <HAL_GPIO_Init+0x29a>
        {
          temp |= iocurrent;
 8001e62:	69ba      	ldr	r2, [r7, #24]
 8001e64:	693b      	ldr	r3, [r7, #16]
 8001e66:	4313      	orrs	r3, r2
 8001e68:	61bb      	str	r3, [r7, #24]
        }
        EXTI->RTSR = temp;
 8001e6a:	4a19      	ldr	r2, [pc, #100]	; (8001ed0 <HAL_GPIO_Init+0x300>)
 8001e6c:	69bb      	ldr	r3, [r7, #24]
 8001e6e:	6093      	str	r3, [r2, #8]

        temp = EXTI->FTSR;
 8001e70:	4b17      	ldr	r3, [pc, #92]	; (8001ed0 <HAL_GPIO_Init+0x300>)
 8001e72:	68db      	ldr	r3, [r3, #12]
 8001e74:	61bb      	str	r3, [r7, #24]
        temp &= ~((uint32_t)iocurrent);
 8001e76:	693b      	ldr	r3, [r7, #16]
 8001e78:	43db      	mvns	r3, r3
 8001e7a:	69ba      	ldr	r2, [r7, #24]
 8001e7c:	4013      	ands	r3, r2
 8001e7e:	61bb      	str	r3, [r7, #24]
        if((GPIO_Init->Mode & FALLING_EDGE) == FALLING_EDGE)
 8001e80:	683b      	ldr	r3, [r7, #0]
 8001e82:	685b      	ldr	r3, [r3, #4]
 8001e84:	f403 1300 	and.w	r3, r3, #2097152	; 0x200000
 8001e88:	2b00      	cmp	r3, #0
 8001e8a:	d003      	beq.n	8001e94 <HAL_GPIO_Init+0x2c4>
        {
          temp |= iocurrent;
 8001e8c:	69ba      	ldr	r2, [r7, #24]
 8001e8e:	693b      	ldr	r3, [r7, #16]
 8001e90:	4313      	orrs	r3, r2
 8001e92:	61bb      	str	r3, [r7, #24]
        }
        EXTI->FTSR = temp;
 8001e94:	4a0e      	ldr	r2, [pc, #56]	; (8001ed0 <HAL_GPIO_Init+0x300>)
 8001e96:	69bb      	ldr	r3, [r7, #24]
 8001e98:	60d3      	str	r3, [r2, #12]
  for(position = 0U; position < GPIO_NUMBER; position++)
 8001e9a:	69fb      	ldr	r3, [r7, #28]
 8001e9c:	3301      	adds	r3, #1
 8001e9e:	61fb      	str	r3, [r7, #28]
 8001ea0:	69fb      	ldr	r3, [r7, #28]
 8001ea2:	2b0f      	cmp	r3, #15
 8001ea4:	f67f aea2 	bls.w	8001bec <HAL_GPIO_Init+0x1c>
      }
    }
  }
}
 8001ea8:	bf00      	nop
 8001eaa:	3724      	adds	r7, #36	; 0x24
 8001eac:	46bd      	mov	sp, r7
 8001eae:	f85d 7b04 	ldr.w	r7, [sp], #4
 8001eb2:	4770      	bx	lr
 8001eb4:	40023800 	.word	0x40023800
 8001eb8:	40013800 	.word	0x40013800
 8001ebc:	40020000 	.word	0x40020000
 8001ec0:	40020400 	.word	0x40020400
 8001ec4:	40020800 	.word	0x40020800
 8001ec8:	40020c00 	.word	0x40020c00
 8001ecc:	40021000 	.word	0x40021000
 8001ed0:	40013c00 	.word	0x40013c00

08001ed4 <HAL_GPIO_WritePin>:
  *            @arg GPIO_PIN_RESET: to clear the port pin
  *            @arg GPIO_PIN_SET: to set the port pin
  * @retval None
  */
void HAL_GPIO_WritePin(GPIO_TypeDef* GPIOx, uint16_t GPIO_Pin, GPIO_PinState PinState)
{
 8001ed4:	b480      	push	{r7}
 8001ed6:	b083      	sub	sp, #12
 8001ed8:	af00      	add	r7, sp, #0
 8001eda:	6078      	str	r0, [r7, #4]
 8001edc:	460b      	mov	r3, r1
 8001ede:	807b      	strh	r3, [r7, #2]
 8001ee0:	4613      	mov	r3, r2
 8001ee2:	707b      	strb	r3, [r7, #1]
  /* Check the parameters */
  assert_param(IS_GPIO_PIN(GPIO_Pin));
  assert_param(IS_GPIO_PIN_ACTION(PinState));

  if(PinState != GPIO_PIN_RESET)
 8001ee4:	787b      	ldrb	r3, [r7, #1]
 8001ee6:	2b00      	cmp	r3, #0
 8001ee8:	d003      	beq.n	8001ef2 <HAL_GPIO_WritePin+0x1e>
  {
    GPIOx->BSRR = GPIO_Pin;
 8001eea:	887a      	ldrh	r2, [r7, #2]
 8001eec:	687b      	ldr	r3, [r7, #4]
 8001eee:	619a      	str	r2, [r3, #24]
  }
  else
  {
    GPIOx->BSRR = (uint32_t)GPIO_Pin << 16U;
  }
}
 8001ef0:	e003      	b.n	8001efa <HAL_GPIO_WritePin+0x26>
    GPIOx->BSRR = (uint32_t)GPIO_Pin << 16U;
 8001ef2:	887b      	ldrh	r3, [r7, #2]
 8001ef4:	041a      	lsls	r2, r3, #16
 8001ef6:	687b      	ldr	r3, [r7, #4]
 8001ef8:	619a      	str	r2, [r3, #24]
}
 8001efa:	bf00      	nop
 8001efc:	370c      	adds	r7, #12
 8001efe:	46bd      	mov	sp, r7
 8001f00:	f85d 7b04 	ldr.w	r7, [sp], #4
 8001f04:	4770      	bx	lr
	...

08001f08 <HAL_RCC_OscConfig>:
  *         supported by this API. User should request a transition to HSE Off
  *         first and then HSE On or HSE Bypass.
  * @retval HAL status
  */
__weak HAL_StatusTypeDef HAL_RCC_OscConfig(RCC_OscInitTypeDef  *RCC_OscInitStruct)
{
 8001f08:	b580      	push	{r7, lr}
 8001f0a:	b086      	sub	sp, #24
 8001f0c:	af00      	add	r7, sp, #0
 8001f0e:	6078      	str	r0, [r7, #4]
  uint32_t tickstart, pll_config;

  /* Check Null pointer */
  if(RCC_OscInitStruct == NULL)
 8001f10:	687b      	ldr	r3, [r7, #4]
 8001f12:	2b00      	cmp	r3, #0
 8001f14:	d101      	bne.n	8001f1a <HAL_RCC_OscConfig+0x12>
  {
    return HAL_ERROR;
 8001f16:	2301      	movs	r3, #1
 8001f18:	e25b      	b.n	80023d2 <HAL_RCC_OscConfig+0x4ca>
  }

  /* Check the parameters */
  assert_param(IS_RCC_OSCILLATORTYPE(RCC_OscInitStruct->OscillatorType));
  /*------------------------------- HSE Configuration ------------------------*/
  if(((RCC_OscInitStruct->OscillatorType) & RCC_OSCILLATORTYPE_HSE) == RCC_OSCILLATORTYPE_HSE)
 8001f1a:	687b      	ldr	r3, [r7, #4]
 8001f1c:	681b      	ldr	r3, [r3, #0]
 8001f1e:	f003 0301 	and.w	r3, r3, #1
 8001f22:	2b00      	cmp	r3, #0
 8001f24:	d075      	beq.n	8002012 <HAL_RCC_OscConfig+0x10a>
  {
    /* Check the parameters */
    assert_param(IS_RCC_HSE(RCC_OscInitStruct->HSEState));
    /* When the HSE is used as system clock or clock source for PLL in these cases HSE will not disabled */
    if((__HAL_RCC_GET_SYSCLK_SOURCE() == RCC_CFGR_SWS_HSE) ||\
 8001f26:	4ba3      	ldr	r3, [pc, #652]	; (80021b4 <HAL_RCC_OscConfig+0x2ac>)
 8001f28:	689b      	ldr	r3, [r3, #8]
 8001f2a:	f003 030c 	and.w	r3, r3, #12
 8001f2e:	2b04      	cmp	r3, #4
 8001f30:	d00c      	beq.n	8001f4c <HAL_RCC_OscConfig+0x44>
      ((__HAL_RCC_GET_SYSCLK_SOURCE() == RCC_CFGR_SWS_PLL) && ((RCC->PLLCFGR & RCC_PLLCFGR_PLLSRC) == RCC_PLLCFGR_PLLSRC_HSE)))
 8001f32:	4ba0      	ldr	r3, [pc, #640]	; (80021b4 <HAL_RCC_OscConfig+0x2ac>)
 8001f34:	689b      	ldr	r3, [r3, #8]
 8001f36:	f003 030c 	and.w	r3, r3, #12
    if((__HAL_RCC_GET_SYSCLK_SOURCE() == RCC_CFGR_SWS_HSE) ||\
 8001f3a:	2b08      	cmp	r3, #8
 8001f3c:	d112      	bne.n	8001f64 <HAL_RCC_OscConfig+0x5c>
      ((__HAL_RCC_GET_SYSCLK_SOURCE() == RCC_CFGR_SWS_PLL) && ((RCC->PLLCFGR & RCC_PLLCFGR_PLLSRC) == RCC_PLLCFGR_PLLSRC_HSE)))
 8001f3e:	4b9d      	ldr	r3, [pc, #628]	; (80021b4 <HAL_RCC_OscConfig+0x2ac>)
 8001f40:	685b      	ldr	r3, [r3, #4]
 8001f42:	f403 0380 	and.w	r3, r3, #4194304	; 0x400000
 8001f46:	f5b3 0f80 	cmp.w	r3, #4194304	; 0x400000
 8001f4a:	d10b      	bne.n	8001f64 <HAL_RCC_OscConfig+0x5c>
    {
      if((__HAL_RCC_GET_FLAG(RCC_FLAG_HSERDY) != RESET) && (RCC_OscInitStruct->HSEState == RCC_HSE_OFF))
 8001f4c:	4b99      	ldr	r3, [pc, #612]	; (80021b4 <HAL_RCC_OscConfig+0x2ac>)
 8001f4e:	681b      	ldr	r3, [r3, #0]
 8001f50:	f403 3300 	and.w	r3, r3, #131072	; 0x20000
 8001f54:	2b00      	cmp	r3, #0
 8001f56:	d05b      	beq.n	8002010 <HAL_RCC_OscConfig+0x108>
 8001f58:	687b      	ldr	r3, [r7, #4]
 8001f5a:	685b      	ldr	r3, [r3, #4]
 8001f5c:	2b00      	cmp	r3, #0
 8001f5e:	d157      	bne.n	8002010 <HAL_RCC_OscConfig+0x108>
      {
        return HAL_ERROR;
 8001f60:	2301      	movs	r3, #1
 8001f62:	e236      	b.n	80023d2 <HAL_RCC_OscConfig+0x4ca>
      }
    }
    else
    {
      /* Set the new HSE configuration ---------------------------------------*/
      __HAL_RCC_HSE_CONFIG(RCC_OscInitStruct->HSEState);
 8001f64:	687b      	ldr	r3, [r7, #4]
 8001f66:	685b      	ldr	r3, [r3, #4]
 8001f68:	f5b3 3f80 	cmp.w	r3, #65536	; 0x10000
 8001f6c:	d106      	bne.n	8001f7c <HAL_RCC_OscConfig+0x74>
 8001f6e:	4b91      	ldr	r3, [pc, #580]	; (80021b4 <HAL_RCC_OscConfig+0x2ac>)
 8001f70:	681b      	ldr	r3, [r3, #0]
 8001f72:	4a90      	ldr	r2, [pc, #576]	; (80021b4 <HAL_RCC_OscConfig+0x2ac>)
 8001f74:	f443 3380 	orr.w	r3, r3, #65536	; 0x10000
 8001f78:	6013      	str	r3, [r2, #0]
 8001f7a:	e01d      	b.n	8001fb8 <HAL_RCC_OscConfig+0xb0>
 8001f7c:	687b      	ldr	r3, [r7, #4]
 8001f7e:	685b      	ldr	r3, [r3, #4]
 8001f80:	f5b3 2fa0 	cmp.w	r3, #327680	; 0x50000
 8001f84:	d10c      	bne.n	8001fa0 <HAL_RCC_OscConfig+0x98>
 8001f86:	4b8b      	ldr	r3, [pc, #556]	; (80021b4 <HAL_RCC_OscConfig+0x2ac>)
 8001f88:	681b      	ldr	r3, [r3, #0]
 8001f8a:	4a8a      	ldr	r2, [pc, #552]	; (80021b4 <HAL_RCC_OscConfig+0x2ac>)
 8001f8c:	f443 2380 	orr.w	r3, r3, #262144	; 0x40000
 8001f90:	6013      	str	r3, [r2, #0]
 8001f92:	4b88      	ldr	r3, [pc, #544]	; (80021b4 <HAL_RCC_OscConfig+0x2ac>)
 8001f94:	681b      	ldr	r3, [r3, #0]
 8001f96:	4a87      	ldr	r2, [pc, #540]	; (80021b4 <HAL_RCC_OscConfig+0x2ac>)
 8001f98:	f443 3380 	orr.w	r3, r3, #65536	; 0x10000
 8001f9c:	6013      	str	r3, [r2, #0]
 8001f9e:	e00b      	b.n	8001fb8 <HAL_RCC_OscConfig+0xb0>
 8001fa0:	4b84      	ldr	r3, [pc, #528]	; (80021b4 <HAL_RCC_OscConfig+0x2ac>)
 8001fa2:	681b      	ldr	r3, [r3, #0]
 8001fa4:	4a83      	ldr	r2, [pc, #524]	; (80021b4 <HAL_RCC_OscConfig+0x2ac>)
 8001fa6:	f423 3380 	bic.w	r3, r3, #65536	; 0x10000
 8001faa:	6013      	str	r3, [r2, #0]
 8001fac:	4b81      	ldr	r3, [pc, #516]	; (80021b4 <HAL_RCC_OscConfig+0x2ac>)
 8001fae:	681b      	ldr	r3, [r3, #0]
 8001fb0:	4a80      	ldr	r2, [pc, #512]	; (80021b4 <HAL_RCC_OscConfig+0x2ac>)
 8001fb2:	f423 2380 	bic.w	r3, r3, #262144	; 0x40000
 8001fb6:	6013      	str	r3, [r2, #0]

      /* Check the HSE State */
      if((RCC_OscInitStruct->HSEState) != RCC_HSE_OFF)
 8001fb8:	687b      	ldr	r3, [r7, #4]
 8001fba:	685b      	ldr	r3, [r3, #4]
 8001fbc:	2b00      	cmp	r3, #0
 8001fbe:	d013      	beq.n	8001fe8 <HAL_RCC_OscConfig+0xe0>
      {
        /* Get Start Tick */
        tickstart = HAL_GetTick();
 8001fc0:	f7ff fab2 	bl	8001528 <HAL_GetTick>
 8001fc4:	6138      	str	r0, [r7, #16]

        /* Wait till HSE is ready */
        while(__HAL_RCC_GET_FLAG(RCC_FLAG_HSERDY) == RESET)
 8001fc6:	e008      	b.n	8001fda <HAL_RCC_OscConfig+0xd2>
        {
          if((HAL_GetTick() - tickstart ) > HSE_TIMEOUT_VALUE)
 8001fc8:	f7ff faae 	bl	8001528 <HAL_GetTick>
 8001fcc:	4602      	mov	r2, r0
 8001fce:	693b      	ldr	r3, [r7, #16]
 8001fd0:	1ad3      	subs	r3, r2, r3
 8001fd2:	2b64      	cmp	r3, #100	; 0x64
 8001fd4:	d901      	bls.n	8001fda <HAL_RCC_OscConfig+0xd2>
          {
            return HAL_TIMEOUT;
 8001fd6:	2303      	movs	r3, #3
 8001fd8:	e1fb      	b.n	80023d2 <HAL_RCC_OscConfig+0x4ca>
        while(__HAL_RCC_GET_FLAG(RCC_FLAG_HSERDY) == RESET)
 8001fda:	4b76      	ldr	r3, [pc, #472]	; (80021b4 <HAL_RCC_OscConfig+0x2ac>)
 8001fdc:	681b      	ldr	r3, [r3, #0]
 8001fde:	f403 3300 	and.w	r3, r3, #131072	; 0x20000
 8001fe2:	2b00      	cmp	r3, #0
 8001fe4:	d0f0      	beq.n	8001fc8 <HAL_RCC_OscConfig+0xc0>
 8001fe6:	e014      	b.n	8002012 <HAL_RCC_OscConfig+0x10a>
        }
      }
      else
      {
        /* Get Start Tick */
        tickstart = HAL_GetTick();
 8001fe8:	f7ff fa9e 	bl	8001528 <HAL_GetTick>
 8001fec:	6138      	str	r0, [r7, #16]

        /* Wait till HSE is bypassed or disabled */
        while(__HAL_RCC_GET_FLAG(RCC_FLAG_HSERDY) != RESET)
 8001fee:	e008      	b.n	8002002 <HAL_RCC_OscConfig+0xfa>
        {
          if((HAL_GetTick() - tickstart ) > HSE_TIMEOUT_VALUE)
 8001ff0:	f7ff fa9a 	bl	8001528 <HAL_GetTick>
 8001ff4:	4602      	mov	r2, r0
 8001ff6:	693b      	ldr	r3, [r7, #16]
 8001ff8:	1ad3      	subs	r3, r2, r3
 8001ffa:	2b64      	cmp	r3, #100	; 0x64
 8001ffc:	d901      	bls.n	8002002 <HAL_RCC_OscConfig+0xfa>
          {
            return HAL_TIMEOUT;
 8001ffe:	2303      	movs	r3, #3
 8002000:	e1e7      	b.n	80023d2 <HAL_RCC_OscConfig+0x4ca>
        while(__HAL_RCC_GET_FLAG(RCC_FLAG_HSERDY) != RESET)
 8002002:	4b6c      	ldr	r3, [pc, #432]	; (80021b4 <HAL_RCC_OscConfig+0x2ac>)
 8002004:	681b      	ldr	r3, [r3, #0]
 8002006:	f403 3300 	and.w	r3, r3, #131072	; 0x20000
 800200a:	2b00      	cmp	r3, #0
 800200c:	d1f0      	bne.n	8001ff0 <HAL_RCC_OscConfig+0xe8>
 800200e:	e000      	b.n	8002012 <HAL_RCC_OscConfig+0x10a>
      if((__HAL_RCC_GET_FLAG(RCC_FLAG_HSERDY) != RESET) && (RCC_OscInitStruct->HSEState == RCC_HSE_OFF))
 8002010:	bf00      	nop
        }
      }
    }
  }
  /*----------------------------- HSI Configuration --------------------------*/
  if(((RCC_OscInitStruct->OscillatorType) & RCC_OSCILLATORTYPE_HSI) == RCC_OSCILLATORTYPE_HSI)
 8002012:	687b      	ldr	r3, [r7, #4]
 8002014:	681b      	ldr	r3, [r3, #0]
 8002016:	f003 0302 	and.w	r3, r3, #2
 800201a:	2b00      	cmp	r3, #0
 800201c:	d063      	beq.n	80020e6 <HAL_RCC_OscConfig+0x1de>
    /* Check the parameters */
    assert_param(IS_RCC_HSI(RCC_OscInitStruct->HSIState));
    assert_param(IS_RCC_CALIBRATION_VALUE(RCC_OscInitStruct->HSICalibrationValue));

    /* Check if HSI is used as system clock or as PLL source when PLL is selected as system clock */
    if((__HAL_RCC_GET_SYSCLK_SOURCE() == RCC_CFGR_SWS_HSI) ||\
 800201e:	4b65      	ldr	r3, [pc, #404]	; (80021b4 <HAL_RCC_OscConfig+0x2ac>)
 8002020:	689b      	ldr	r3, [r3, #8]
 8002022:	f003 030c 	and.w	r3, r3, #12
 8002026:	2b00      	cmp	r3, #0
 8002028:	d00b      	beq.n	8002042 <HAL_RCC_OscConfig+0x13a>
      ((__HAL_RCC_GET_SYSCLK_SOURCE() == RCC_CFGR_SWS_PLL) && ((RCC->PLLCFGR & RCC_PLLCFGR_PLLSRC) == RCC_PLLCFGR_PLLSRC_HSI)))
 800202a:	4b62      	ldr	r3, [pc, #392]	; (80021b4 <HAL_RCC_OscConfig+0x2ac>)
 800202c:	689b      	ldr	r3, [r3, #8]
 800202e:	f003 030c 	and.w	r3, r3, #12
    if((__HAL_RCC_GET_SYSCLK_SOURCE() == RCC_CFGR_SWS_HSI) ||\
 8002032:	2b08      	cmp	r3, #8
 8002034:	d11c      	bne.n	8002070 <HAL_RCC_OscConfig+0x168>
      ((__HAL_RCC_GET_SYSCLK_SOURCE() == RCC_CFGR_SWS_PLL) && ((RCC->PLLCFGR & RCC_PLLCFGR_PLLSRC) == RCC_PLLCFGR_PLLSRC_HSI)))
 8002036:	4b5f      	ldr	r3, [pc, #380]	; (80021b4 <HAL_RCC_OscConfig+0x2ac>)
 8002038:	685b      	ldr	r3, [r3, #4]
 800203a:	f403 0380 	and.w	r3, r3, #4194304	; 0x400000
 800203e:	2b00      	cmp	r3, #0
 8002040:	d116      	bne.n	8002070 <HAL_RCC_OscConfig+0x168>
    {
      /* When HSI is used as system clock it will not disabled */
      if((__HAL_RCC_GET_FLAG(RCC_FLAG_HSIRDY) != RESET) && (RCC_OscInitStruct->HSIState != RCC_HSI_ON))
 8002042:	4b5c      	ldr	r3, [pc, #368]	; (80021b4 <HAL_RCC_OscConfig+0x2ac>)
 8002044:	681b      	ldr	r3, [r3, #0]
 8002046:	f003 0302 	and.w	r3, r3, #2
 800204a:	2b00      	cmp	r3, #0
 800204c:	d005      	beq.n	800205a <HAL_RCC_OscConfig+0x152>
 800204e:	687b      	ldr	r3, [r7, #4]
 8002050:	68db      	ldr	r3, [r3, #12]
 8002052:	2b01      	cmp	r3, #1
 8002054:	d001      	beq.n	800205a <HAL_RCC_OscConfig+0x152>
      {
        return HAL_ERROR;
 8002056:	2301      	movs	r3, #1
 8002058:	e1bb      	b.n	80023d2 <HAL_RCC_OscConfig+0x4ca>
      }
      /* Otherwise, just the calibration is allowed */
      else
      {
        /* Adjusts the Internal High Speed oscillator (HSI) calibration value.*/
        __HAL_RCC_HSI_CALIBRATIONVALUE_ADJUST(RCC_OscInitStruct->HSICalibrationValue);
 800205a:	4b56      	ldr	r3, [pc, #344]	; (80021b4 <HAL_RCC_OscConfig+0x2ac>)
 800205c:	681b      	ldr	r3, [r3, #0]
 800205e:	f023 02f8 	bic.w	r2, r3, #248	; 0xf8
 8002062:	687b      	ldr	r3, [r7, #4]
 8002064:	691b      	ldr	r3, [r3, #16]
 8002066:	00db      	lsls	r3, r3, #3
 8002068:	4952      	ldr	r1, [pc, #328]	; (80021b4 <HAL_RCC_OscConfig+0x2ac>)
 800206a:	4313      	orrs	r3, r2
 800206c:	600b      	str	r3, [r1, #0]
      if((__HAL_RCC_GET_FLAG(RCC_FLAG_HSIRDY) != RESET) && (RCC_OscInitStruct->HSIState != RCC_HSI_ON))
 800206e:	e03a      	b.n	80020e6 <HAL_RCC_OscConfig+0x1de>
      }
    }
    else
    {
      /* Check the HSI State */
      if((RCC_OscInitStruct->HSIState)!= RCC_HSI_OFF)
 8002070:	687b      	ldr	r3, [r7, #4]
 8002072:	68db      	ldr	r3, [r3, #12]
 8002074:	2b00      	cmp	r3, #0
 8002076:	d020      	beq.n	80020ba <HAL_RCC_OscConfig+0x1b2>
      {
        /* Enable the Internal High Speed oscillator (HSI). */
        __HAL_RCC_HSI_ENABLE();
 8002078:	4b4f      	ldr	r3, [pc, #316]	; (80021b8 <HAL_RCC_OscConfig+0x2b0>)
 800207a:	2201      	movs	r2, #1
 800207c:	601a      	str	r2, [r3, #0]

        /* Get Start Tick*/
        tickstart = HAL_GetTick();
 800207e:	f7ff fa53 	bl	8001528 <HAL_GetTick>
 8002082:	6138      	str	r0, [r7, #16]

        /* Wait till HSI is ready */
        while(__HAL_RCC_GET_FLAG(RCC_FLAG_HSIRDY) == RESET)
 8002084:	e008      	b.n	8002098 <HAL_RCC_OscConfig+0x190>
        {
          if((HAL_GetTick() - tickstart ) > HSI_TIMEOUT_VALUE)
 8002086:	f7ff fa4f 	bl	8001528 <HAL_GetTick>
 800208a:	4602      	mov	r2, r0
 800208c:	693b      	ldr	r3, [r7, #16]
 800208e:	1ad3      	subs	r3, r2, r3
 8002090:	2b02      	cmp	r3, #2
 8002092:	d901      	bls.n	8002098 <HAL_RCC_OscConfig+0x190>
          {
            return HAL_TIMEOUT;
 8002094:	2303      	movs	r3, #3
 8002096:	e19c      	b.n	80023d2 <HAL_RCC_OscConfig+0x4ca>
        while(__HAL_RCC_GET_FLAG(RCC_FLAG_HSIRDY) == RESET)
 8002098:	4b46      	ldr	r3, [pc, #280]	; (80021b4 <HAL_RCC_OscConfig+0x2ac>)
 800209a:	681b      	ldr	r3, [r3, #0]
 800209c:	f003 0302 	and.w	r3, r3, #2
 80020a0:	2b00      	cmp	r3, #0
 80020a2:	d0f0      	beq.n	8002086 <HAL_RCC_OscConfig+0x17e>
          }
        }

        /* Adjusts the Internal High Speed oscillator (HSI) calibration value. */
        __HAL_RCC_HSI_CALIBRATIONVALUE_ADJUST(RCC_OscInitStruct->HSICalibrationValue);
 80020a4:	4b43      	ldr	r3, [pc, #268]	; (80021b4 <HAL_RCC_OscConfig+0x2ac>)
 80020a6:	681b      	ldr	r3, [r3, #0]
 80020a8:	f023 02f8 	bic.w	r2, r3, #248	; 0xf8
 80020ac:	687b      	ldr	r3, [r7, #4]
 80020ae:	691b      	ldr	r3, [r3, #16]
 80020b0:	00db      	lsls	r3, r3, #3
 80020b2:	4940      	ldr	r1, [pc, #256]	; (80021b4 <HAL_RCC_OscConfig+0x2ac>)
 80020b4:	4313      	orrs	r3, r2
 80020b6:	600b      	str	r3, [r1, #0]
 80020b8:	e015      	b.n	80020e6 <HAL_RCC_OscConfig+0x1de>
      }
      else
      {
        /* Disable the Internal High Speed oscillator (HSI). */
        __HAL_RCC_HSI_DISABLE();
 80020ba:	4b3f      	ldr	r3, [pc, #252]	; (80021b8 <HAL_RCC_OscConfig+0x2b0>)
 80020bc:	2200      	movs	r2, #0
 80020be:	601a      	str	r2, [r3, #0]

        /* Get Start Tick*/
        tickstart = HAL_GetTick();
 80020c0:	f7ff fa32 	bl	8001528 <HAL_GetTick>
 80020c4:	6138      	str	r0, [r7, #16]

        /* Wait till HSI is ready */
        while(__HAL_RCC_GET_FLAG(RCC_FLAG_HSIRDY) != RESET)
 80020c6:	e008      	b.n	80020da <HAL_RCC_OscConfig+0x1d2>
        {
          if((HAL_GetTick() - tickstart ) > HSI_TIMEOUT_VALUE)
 80020c8:	f7ff fa2e 	bl	8001528 <HAL_GetTick>
 80020cc:	4602      	mov	r2, r0
 80020ce:	693b      	ldr	r3, [r7, #16]
 80020d0:	1ad3      	subs	r3, r2, r3
 80020d2:	2b02      	cmp	r3, #2
 80020d4:	d901      	bls.n	80020da <HAL_RCC_OscConfig+0x1d2>
          {
            return HAL_TIMEOUT;
 80020d6:	2303      	movs	r3, #3
 80020d8:	e17b      	b.n	80023d2 <HAL_RCC_OscConfig+0x4ca>
        while(__HAL_RCC_GET_FLAG(RCC_FLAG_HSIRDY) != RESET)
 80020da:	4b36      	ldr	r3, [pc, #216]	; (80021b4 <HAL_RCC_OscConfig+0x2ac>)
 80020dc:	681b      	ldr	r3, [r3, #0]
 80020de:	f003 0302 	and.w	r3, r3, #2
 80020e2:	2b00      	cmp	r3, #0
 80020e4:	d1f0      	bne.n	80020c8 <HAL_RCC_OscConfig+0x1c0>
        }
      }
    }
  }
  /*------------------------------ LSI Configuration -------------------------*/
  if(((RCC_OscInitStruct->OscillatorType) & RCC_OSCILLATORTYPE_LSI) == RCC_OSCILLATORTYPE_LSI)
 80020e6:	687b      	ldr	r3, [r7, #4]
 80020e8:	681b      	ldr	r3, [r3, #0]
 80020ea:	f003 0308 	and.w	r3, r3, #8
 80020ee:	2b00      	cmp	r3, #0
 80020f0:	d030      	beq.n	8002154 <HAL_RCC_OscConfig+0x24c>
  {
    /* Check the parameters */
    assert_param(IS_RCC_LSI(RCC_OscInitStruct->LSIState));

    /* Check the LSI State */
    if((RCC_OscInitStruct->LSIState)!= RCC_LSI_OFF)
 80020f2:	687b      	ldr	r3, [r7, #4]
 80020f4:	695b      	ldr	r3, [r3, #20]
 80020f6:	2b00      	cmp	r3, #0
 80020f8:	d016      	beq.n	8002128 <HAL_RCC_OscConfig+0x220>
    {
      /* Enable the Internal Low Speed oscillator (LSI). */
      __HAL_RCC_LSI_ENABLE();
 80020fa:	4b30      	ldr	r3, [pc, #192]	; (80021bc <HAL_RCC_OscConfig+0x2b4>)
 80020fc:	2201      	movs	r2, #1
 80020fe:	601a      	str	r2, [r3, #0]

      /* Get Start Tick*/
      tickstart = HAL_GetTick();
 8002100:	f7ff fa12 	bl	8001528 <HAL_GetTick>
 8002104:	6138      	str	r0, [r7, #16]

      /* Wait till LSI is ready */
      while(__HAL_RCC_GET_FLAG(RCC_FLAG_LSIRDY) == RESET)
 8002106:	e008      	b.n	800211a <HAL_RCC_OscConfig+0x212>
      {
        if((HAL_GetTick() - tickstart ) > LSI_TIMEOUT_VALUE)
 8002108:	f7ff fa0e 	bl	8001528 <HAL_GetTick>
 800210c:	4602      	mov	r2, r0
 800210e:	693b      	ldr	r3, [r7, #16]
 8002110:	1ad3      	subs	r3, r2, r3
 8002112:	2b02      	cmp	r3, #2
 8002114:	d901      	bls.n	800211a <HAL_RCC_OscConfig+0x212>
        {
          return HAL_TIMEOUT;
 8002116:	2303      	movs	r3, #3
 8002118:	e15b      	b.n	80023d2 <HAL_RCC_OscConfig+0x4ca>
      while(__HAL_RCC_GET_FLAG(RCC_FLAG_LSIRDY) == RESET)
 800211a:	4b26      	ldr	r3, [pc, #152]	; (80021b4 <HAL_RCC_OscConfig+0x2ac>)
 800211c:	6f5b      	ldr	r3, [r3, #116]	; 0x74
 800211e:	f003 0302 	and.w	r3, r3, #2
 8002122:	2b00      	cmp	r3, #0
 8002124:	d0f0      	beq.n	8002108 <HAL_RCC_OscConfig+0x200>
 8002126:	e015      	b.n	8002154 <HAL_RCC_OscConfig+0x24c>
      }
    }
    else
    {
      /* Disable the Internal Low Speed oscillator (LSI). */
      __HAL_RCC_LSI_DISABLE();
 8002128:	4b24      	ldr	r3, [pc, #144]	; (80021bc <HAL_RCC_OscConfig+0x2b4>)
 800212a:	2200      	movs	r2, #0
 800212c:	601a      	str	r2, [r3, #0]

      /* Get Start Tick */
      tickstart = HAL_GetTick();
 800212e:	f7ff f9fb 	bl	8001528 <HAL_GetTick>
 8002132:	6138      	str	r0, [r7, #16]

      /* Wait till LSI is ready */
      while(__HAL_RCC_GET_FLAG(RCC_FLAG_LSIRDY) != RESET)
 8002134:	e008      	b.n	8002148 <HAL_RCC_OscConfig+0x240>
      {
        if((HAL_GetTick() - tickstart ) > LSI_TIMEOUT_VALUE)
 8002136:	f7ff f9f7 	bl	8001528 <HAL_GetTick>
 800213a:	4602      	mov	r2, r0
 800213c:	693b      	ldr	r3, [r7, #16]
 800213e:	1ad3      	subs	r3, r2, r3
 8002140:	2b02      	cmp	r3, #2
 8002142:	d901      	bls.n	8002148 <HAL_RCC_OscConfig+0x240>
        {
          return HAL_TIMEOUT;
 8002144:	2303      	movs	r3, #3
 8002146:	e144      	b.n	80023d2 <HAL_RCC_OscConfig+0x4ca>
      while(__HAL_RCC_GET_FLAG(RCC_FLAG_LSIRDY) != RESET)
 8002148:	4b1a      	ldr	r3, [pc, #104]	; (80021b4 <HAL_RCC_OscConfig+0x2ac>)
 800214a:	6f5b      	ldr	r3, [r3, #116]	; 0x74
 800214c:	f003 0302 	and.w	r3, r3, #2
 8002150:	2b00      	cmp	r3, #0
 8002152:	d1f0      	bne.n	8002136 <HAL_RCC_OscConfig+0x22e>
        }
      }
    }
  }
  /*------------------------------ LSE Configuration -------------------------*/
  if(((RCC_OscInitStruct->OscillatorType) & RCC_OSCILLATORTYPE_LSE) == RCC_OSCILLATORTYPE_LSE)
 8002154:	687b      	ldr	r3, [r7, #4]
 8002156:	681b      	ldr	r3, [r3, #0]
 8002158:	f003 0304 	and.w	r3, r3, #4
 800215c:	2b00      	cmp	r3, #0
 800215e:	f000 80a0 	beq.w	80022a2 <HAL_RCC_OscConfig+0x39a>
  {
    FlagStatus       pwrclkchanged = RESET;
 8002162:	2300      	movs	r3, #0
 8002164:	75fb      	strb	r3, [r7, #23]
    /* Check the parameters */
    assert_param(IS_RCC_LSE(RCC_OscInitStruct->LSEState));

    /* Update LSE configuration in Backup Domain control register    */
    /* Requires to enable write access to Backup Domain of necessary */
    if(__HAL_RCC_PWR_IS_CLK_DISABLED())
 8002166:	4b13      	ldr	r3, [pc, #76]	; (80021b4 <HAL_RCC_OscConfig+0x2ac>)
 8002168:	6c1b      	ldr	r3, [r3, #64]	; 0x40
 800216a:	f003 5380 	and.w	r3, r3, #268435456	; 0x10000000
 800216e:	2b00      	cmp	r3, #0
 8002170:	d10f      	bne.n	8002192 <HAL_RCC_OscConfig+0x28a>
    {
      __HAL_RCC_PWR_CLK_ENABLE();
 8002172:	2300      	movs	r3, #0
 8002174:	60bb      	str	r3, [r7, #8]
 8002176:	4b0f      	ldr	r3, [pc, #60]	; (80021b4 <HAL_RCC_OscConfig+0x2ac>)
 8002178:	6c1b      	ldr	r3, [r3, #64]	; 0x40
 800217a:	4a0e      	ldr	r2, [pc, #56]	; (80021b4 <HAL_RCC_OscConfig+0x2ac>)
 800217c:	f043 5380 	orr.w	r3, r3, #268435456	; 0x10000000
 8002180:	6413      	str	r3, [r2, #64]	; 0x40
 8002182:	4b0c      	ldr	r3, [pc, #48]	; (80021b4 <HAL_RCC_OscConfig+0x2ac>)
 8002184:	6c1b      	ldr	r3, [r3, #64]	; 0x40
 8002186:	f003 5380 	and.w	r3, r3, #268435456	; 0x10000000
 800218a:	60bb      	str	r3, [r7, #8]
 800218c:	68bb      	ldr	r3, [r7, #8]
      pwrclkchanged = SET;
 800218e:	2301      	movs	r3, #1
 8002190:	75fb      	strb	r3, [r7, #23]
    }

    if(HAL_IS_BIT_CLR(PWR->CR, PWR_CR_DBP))
 8002192:	4b0b      	ldr	r3, [pc, #44]	; (80021c0 <HAL_RCC_OscConfig+0x2b8>)
 8002194:	681b      	ldr	r3, [r3, #0]
 8002196:	f403 7380 	and.w	r3, r3, #256	; 0x100
 800219a:	2b00      	cmp	r3, #0
 800219c:	d121      	bne.n	80021e2 <HAL_RCC_OscConfig+0x2da>
    {
      /* Enable write access to Backup domain */
      SET_BIT(PWR->CR, PWR_CR_DBP);
 800219e:	4b08      	ldr	r3, [pc, #32]	; (80021c0 <HAL_RCC_OscConfig+0x2b8>)
 80021a0:	681b      	ldr	r3, [r3, #0]
 80021a2:	4a07      	ldr	r2, [pc, #28]	; (80021c0 <HAL_RCC_OscConfig+0x2b8>)
 80021a4:	f443 7380 	orr.w	r3, r3, #256	; 0x100
 80021a8:	6013      	str	r3, [r2, #0]

      /* Wait for Backup domain Write protection disable */
      tickstart = HAL_GetTick();
 80021aa:	f7ff f9bd 	bl	8001528 <HAL_GetTick>
 80021ae:	6138      	str	r0, [r7, #16]

      while(HAL_IS_BIT_CLR(PWR->CR, PWR_CR_DBP))
 80021b0:	e011      	b.n	80021d6 <HAL_RCC_OscConfig+0x2ce>
 80021b2:	bf00      	nop
 80021b4:	40023800 	.word	0x40023800
 80021b8:	42470000 	.word	0x42470000
 80021bc:	42470e80 	.word	0x42470e80
 80021c0:	40007000 	.word	0x40007000
      {
        if((HAL_GetTick() - tickstart) > RCC_DBP_TIMEOUT_VALUE)
 80021c4:	f7ff f9b0 	bl	8001528 <HAL_GetTick>
 80021c8:	4602      	mov	r2, r0
 80021ca:	693b      	ldr	r3, [r7, #16]
 80021cc:	1ad3      	subs	r3, r2, r3
 80021ce:	2b02      	cmp	r3, #2
 80021d0:	d901      	bls.n	80021d6 <HAL_RCC_OscConfig+0x2ce>
        {
          return HAL_TIMEOUT;
 80021d2:	2303      	movs	r3, #3
 80021d4:	e0fd      	b.n	80023d2 <HAL_RCC_OscConfig+0x4ca>
      while(HAL_IS_BIT_CLR(PWR->CR, PWR_CR_DBP))
 80021d6:	4b81      	ldr	r3, [pc, #516]	; (80023dc <HAL_RCC_OscConfig+0x4d4>)
 80021d8:	681b      	ldr	r3, [r3, #0]
 80021da:	f403 7380 	and.w	r3, r3, #256	; 0x100
 80021de:	2b00      	cmp	r3, #0
 80021e0:	d0f0      	beq.n	80021c4 <HAL_RCC_OscConfig+0x2bc>
        }
      }
    }

    /* Set the new LSE configuration -----------------------------------------*/
    __HAL_RCC_LSE_CONFIG(RCC_OscInitStruct->LSEState);
 80021e2:	687b      	ldr	r3, [r7, #4]
 80021e4:	689b      	ldr	r3, [r3, #8]
 80021e6:	2b01      	cmp	r3, #1
 80021e8:	d106      	bne.n	80021f8 <HAL_RCC_OscConfig+0x2f0>
 80021ea:	4b7d      	ldr	r3, [pc, #500]	; (80023e0 <HAL_RCC_OscConfig+0x4d8>)
 80021ec:	6f1b      	ldr	r3, [r3, #112]	; 0x70
 80021ee:	4a7c      	ldr	r2, [pc, #496]	; (80023e0 <HAL_RCC_OscConfig+0x4d8>)
 80021f0:	f043 0301 	orr.w	r3, r3, #1
 80021f4:	6713      	str	r3, [r2, #112]	; 0x70
 80021f6:	e01c      	b.n	8002232 <HAL_RCC_OscConfig+0x32a>
 80021f8:	687b      	ldr	r3, [r7, #4]
 80021fa:	689b      	ldr	r3, [r3, #8]
 80021fc:	2b05      	cmp	r3, #5
 80021fe:	d10c      	bne.n	800221a <HAL_RCC_OscConfig+0x312>
 8002200:	4b77      	ldr	r3, [pc, #476]	; (80023e0 <HAL_RCC_OscConfig+0x4d8>)
 8002202:	6f1b      	ldr	r3, [r3, #112]	; 0x70
 8002204:	4a76      	ldr	r2, [pc, #472]	; (80023e0 <HAL_RCC_OscConfig+0x4d8>)
 8002206:	f043 0304 	orr.w	r3, r3, #4
 800220a:	6713      	str	r3, [r2, #112]	; 0x70
 800220c:	4b74      	ldr	r3, [pc, #464]	; (80023e0 <HAL_RCC_OscConfig+0x4d8>)
 800220e:	6f1b      	ldr	r3, [r3, #112]	; 0x70
 8002210:	4a73      	ldr	r2, [pc, #460]	; (80023e0 <HAL_RCC_OscConfig+0x4d8>)
 8002212:	f043 0301 	orr.w	r3, r3, #1
 8002216:	6713      	str	r3, [r2, #112]	; 0x70
 8002218:	e00b      	b.n	8002232 <HAL_RCC_OscConfig+0x32a>
 800221a:	4b71      	ldr	r3, [pc, #452]	; (80023e0 <HAL_RCC_OscConfig+0x4d8>)
 800221c:	6f1b      	ldr	r3, [r3, #112]	; 0x70
 800221e:	4a70      	ldr	r2, [pc, #448]	; (80023e0 <HAL_RCC_OscConfig+0x4d8>)
 8002220:	f023 0301 	bic.w	r3, r3, #1
 8002224:	6713      	str	r3, [r2, #112]	; 0x70
 8002226:	4b6e      	ldr	r3, [pc, #440]	; (80023e0 <HAL_RCC_OscConfig+0x4d8>)
 8002228:	6f1b      	ldr	r3, [r3, #112]	; 0x70
 800222a:	4a6d      	ldr	r2, [pc, #436]	; (80023e0 <HAL_RCC_OscConfig+0x4d8>)
 800222c:	f023 0304 	bic.w	r3, r3, #4
 8002230:	6713      	str	r3, [r2, #112]	; 0x70
    /* Check the LSE State */
    if((RCC_OscInitStruct->LSEState) != RCC_LSE_OFF)
 8002232:	687b      	ldr	r3, [r7, #4]
 8002234:	689b      	ldr	r3, [r3, #8]
 8002236:	2b00      	cmp	r3, #0
 8002238:	d015      	beq.n	8002266 <HAL_RCC_OscConfig+0x35e>
    {
      /* Get Start Tick*/
      tickstart = HAL_GetTick();
 800223a:	f7ff f975 	bl	8001528 <HAL_GetTick>
 800223e:	6138      	str	r0, [r7, #16]

      /* Wait till LSE is ready */
      while(__HAL_RCC_GET_FLAG(RCC_FLAG_LSERDY) == RESET)
 8002240:	e00a      	b.n	8002258 <HAL_RCC_OscConfig+0x350>
      {
        if((HAL_GetTick() - tickstart ) > RCC_LSE_TIMEOUT_VALUE)
 8002242:	f7ff f971 	bl	8001528 <HAL_GetTick>
 8002246:	4602      	mov	r2, r0
 8002248:	693b      	ldr	r3, [r7, #16]
 800224a:	1ad3      	subs	r3, r2, r3
 800224c:	f241 3288 	movw	r2, #5000	; 0x1388
 8002250:	4293      	cmp	r3, r2
 8002252:	d901      	bls.n	8002258 <HAL_RCC_OscConfig+0x350>
        {
          return HAL_TIMEOUT;
 8002254:	2303      	movs	r3, #3
 8002256:	e0bc      	b.n	80023d2 <HAL_RCC_OscConfig+0x4ca>
      while(__HAL_RCC_GET_FLAG(RCC_FLAG_LSERDY) == RESET)
 8002258:	4b61      	ldr	r3, [pc, #388]	; (80023e0 <HAL_RCC_OscConfig+0x4d8>)
 800225a:	6f1b      	ldr	r3, [r3, #112]	; 0x70
 800225c:	f003 0302 	and.w	r3, r3, #2
 8002260:	2b00      	cmp	r3, #0
 8002262:	d0ee      	beq.n	8002242 <HAL_RCC_OscConfig+0x33a>
 8002264:	e014      	b.n	8002290 <HAL_RCC_OscConfig+0x388>
      }
    }
    else
    {
      /* Get Start Tick */
      tickstart = HAL_GetTick();
 8002266:	f7ff f95f 	bl	8001528 <HAL_GetTick>
 800226a:	6138      	str	r0, [r7, #16]

      /* Wait till LSE is ready */
      while(__HAL_RCC_GET_FLAG(RCC_FLAG_LSERDY) != RESET)
 800226c:	e00a      	b.n	8002284 <HAL_RCC_OscConfig+0x37c>
      {
        if((HAL_GetTick() - tickstart ) > RCC_LSE_TIMEOUT_VALUE)
 800226e:	f7ff f95b 	bl	8001528 <HAL_GetTick>
 8002272:	4602      	mov	r2, r0
 8002274:	693b      	ldr	r3, [r7, #16]
 8002276:	1ad3      	subs	r3, r2, r3
 8002278:	f241 3288 	movw	r2, #5000	; 0x1388
 800227c:	4293      	cmp	r3, r2
 800227e:	d901      	bls.n	8002284 <HAL_RCC_OscConfig+0x37c>
        {
          return HAL_TIMEOUT;
 8002280:	2303      	movs	r3, #3
 8002282:	e0a6      	b.n	80023d2 <HAL_RCC_OscConfig+0x4ca>
      while(__HAL_RCC_GET_FLAG(RCC_FLAG_LSERDY) != RESET)
 8002284:	4b56      	ldr	r3, [pc, #344]	; (80023e0 <HAL_RCC_OscConfig+0x4d8>)
 8002286:	6f1b      	ldr	r3, [r3, #112]	; 0x70
 8002288:	f003 0302 	and.w	r3, r3, #2
 800228c:	2b00      	cmp	r3, #0
 800228e:	d1ee      	bne.n	800226e <HAL_RCC_OscConfig+0x366>
        }
      }
    }

    /* Restore clock configuration if changed */
    if(pwrclkchanged == SET)
 8002290:	7dfb      	ldrb	r3, [r7, #23]
 8002292:	2b01      	cmp	r3, #1
 8002294:	d105      	bne.n	80022a2 <HAL_RCC_OscConfig+0x39a>
    {
      __HAL_RCC_PWR_CLK_DISABLE();
 8002296:	4b52      	ldr	r3, [pc, #328]	; (80023e0 <HAL_RCC_OscConfig+0x4d8>)
 8002298:	6c1b      	ldr	r3, [r3, #64]	; 0x40
 800229a:	4a51      	ldr	r2, [pc, #324]	; (80023e0 <HAL_RCC_OscConfig+0x4d8>)
 800229c:	f023 5380 	bic.w	r3, r3, #268435456	; 0x10000000
 80022a0:	6413      	str	r3, [r2, #64]	; 0x40
    }
  }
  /*-------------------------------- PLL Configuration -----------------------*/
  /* Check the parameters */
  assert_param(IS_RCC_PLL(RCC_OscInitStruct->PLL.PLLState));
  if ((RCC_OscInitStruct->PLL.PLLState) != RCC_PLL_NONE)
 80022a2:	687b      	ldr	r3, [r7, #4]
 80022a4:	699b      	ldr	r3, [r3, #24]
 80022a6:	2b00      	cmp	r3, #0
 80022a8:	f000 8092 	beq.w	80023d0 <HAL_RCC_OscConfig+0x4c8>
  {
    /* Check if the PLL is used as system clock or not */
    if(__HAL_RCC_GET_SYSCLK_SOURCE() != RCC_CFGR_SWS_PLL)
 80022ac:	4b4c      	ldr	r3, [pc, #304]	; (80023e0 <HAL_RCC_OscConfig+0x4d8>)
 80022ae:	689b      	ldr	r3, [r3, #8]
 80022b0:	f003 030c 	and.w	r3, r3, #12
 80022b4:	2b08      	cmp	r3, #8
 80022b6:	d05c      	beq.n	8002372 <HAL_RCC_OscConfig+0x46a>
    {
      if((RCC_OscInitStruct->PLL.PLLState) == RCC_PLL_ON)
 80022b8:	687b      	ldr	r3, [r7, #4]
 80022ba:	699b      	ldr	r3, [r3, #24]
 80022bc:	2b02      	cmp	r3, #2
 80022be:	d141      	bne.n	8002344 <HAL_RCC_OscConfig+0x43c>
        assert_param(IS_RCC_PLLN_VALUE(RCC_OscInitStruct->PLL.PLLN));
        assert_param(IS_RCC_PLLP_VALUE(RCC_OscInitStruct->PLL.PLLP));
        assert_param(IS_RCC_PLLQ_VALUE(RCC_OscInitStruct->PLL.PLLQ));

        /* Disable the main PLL. */
        __HAL_RCC_PLL_DISABLE();
 80022c0:	4b48      	ldr	r3, [pc, #288]	; (80023e4 <HAL_RCC_OscConfig+0x4dc>)
 80022c2:	2200      	movs	r2, #0
 80022c4:	601a      	str	r2, [r3, #0]

        /* Get Start Tick */
        tickstart = HAL_GetTick();
 80022c6:	f7ff f92f 	bl	8001528 <HAL_GetTick>
 80022ca:	6138      	str	r0, [r7, #16]

        /* Wait till PLL is ready */
        while(__HAL_RCC_GET_FLAG(RCC_FLAG_PLLRDY) != RESET)
 80022cc:	e008      	b.n	80022e0 <HAL_RCC_OscConfig+0x3d8>
        {
          if((HAL_GetTick() - tickstart ) > PLL_TIMEOUT_VALUE)
 80022ce:	f7ff f92b 	bl	8001528 <HAL_GetTick>
 80022d2:	4602      	mov	r2, r0
 80022d4:	693b      	ldr	r3, [r7, #16]
 80022d6:	1ad3      	subs	r3, r2, r3
 80022d8:	2b02      	cmp	r3, #2
 80022da:	d901      	bls.n	80022e0 <HAL_RCC_OscConfig+0x3d8>
          {
            return HAL_TIMEOUT;
 80022dc:	2303      	movs	r3, #3
 80022de:	e078      	b.n	80023d2 <HAL_RCC_OscConfig+0x4ca>
        while(__HAL_RCC_GET_FLAG(RCC_FLAG_PLLRDY) != RESET)
 80022e0:	4b3f      	ldr	r3, [pc, #252]	; (80023e0 <HAL_RCC_OscConfig+0x4d8>)
 80022e2:	681b      	ldr	r3, [r3, #0]
 80022e4:	f003 7300 	and.w	r3, r3, #33554432	; 0x2000000
 80022e8:	2b00      	cmp	r3, #0
 80022ea:	d1f0      	bne.n	80022ce <HAL_RCC_OscConfig+0x3c6>
          }
        }

        /* Configure the main PLL clock source, multiplication and division factors. */
        WRITE_REG(RCC->PLLCFGR, (RCC_OscInitStruct->PLL.PLLSource                                            | \
 80022ec:	687b      	ldr	r3, [r7, #4]
 80022ee:	69da      	ldr	r2, [r3, #28]
 80022f0:	687b      	ldr	r3, [r7, #4]
 80022f2:	6a1b      	ldr	r3, [r3, #32]
 80022f4:	431a      	orrs	r2, r3
 80022f6:	687b      	ldr	r3, [r7, #4]
 80022f8:	6a5b      	ldr	r3, [r3, #36]	; 0x24
 80022fa:	019b      	lsls	r3, r3, #6
 80022fc:	431a      	orrs	r2, r3
 80022fe:	687b      	ldr	r3, [r7, #4]
 8002300:	6a9b      	ldr	r3, [r3, #40]	; 0x28
 8002302:	085b      	lsrs	r3, r3, #1
 8002304:	3b01      	subs	r3, #1
 8002306:	041b      	lsls	r3, r3, #16
 8002308:	431a      	orrs	r2, r3
 800230a:	687b      	ldr	r3, [r7, #4]
 800230c:	6adb      	ldr	r3, [r3, #44]	; 0x2c
 800230e:	061b      	lsls	r3, r3, #24
 8002310:	4933      	ldr	r1, [pc, #204]	; (80023e0 <HAL_RCC_OscConfig+0x4d8>)
 8002312:	4313      	orrs	r3, r2
 8002314:	604b      	str	r3, [r1, #4]
                                 RCC_OscInitStruct->PLL.PLLM                                                 | \
                                 (RCC_OscInitStruct->PLL.PLLN << RCC_PLLCFGR_PLLN_Pos)             | \
                                 (((RCC_OscInitStruct->PLL.PLLP >> 1U) - 1U) << RCC_PLLCFGR_PLLP_Pos) | \
                                 (RCC_OscInitStruct->PLL.PLLQ << RCC_PLLCFGR_PLLQ_Pos)));
        /* Enable the main PLL. */
        __HAL_RCC_PLL_ENABLE();
 8002316:	4b33      	ldr	r3, [pc, #204]	; (80023e4 <HAL_RCC_OscConfig+0x4dc>)
 8002318:	2201      	movs	r2, #1
 800231a:	601a      	str	r2, [r3, #0]

        /* Get Start Tick */
        tickstart = HAL_GetTick();
 800231c:	f7ff f904 	bl	8001528 <HAL_GetTick>
 8002320:	6138      	str	r0, [r7, #16]

        /* Wait till PLL is ready */
        while(__HAL_RCC_GET_FLAG(RCC_FLAG_PLLRDY) == RESET)
 8002322:	e008      	b.n	8002336 <HAL_RCC_OscConfig+0x42e>
        {
          if((HAL_GetTick() - tickstart ) > PLL_TIMEOUT_VALUE)
 8002324:	f7ff f900 	bl	8001528 <HAL_GetTick>
 8002328:	4602      	mov	r2, r0
 800232a:	693b      	ldr	r3, [r7, #16]
 800232c:	1ad3      	subs	r3, r2, r3
 800232e:	2b02      	cmp	r3, #2
 8002330:	d901      	bls.n	8002336 <HAL_RCC_OscConfig+0x42e>
          {
            return HAL_TIMEOUT;
 8002332:	2303      	movs	r3, #3
 8002334:	e04d      	b.n	80023d2 <HAL_RCC_OscConfig+0x4ca>
        while(__HAL_RCC_GET_FLAG(RCC_FLAG_PLLRDY) == RESET)
 8002336:	4b2a      	ldr	r3, [pc, #168]	; (80023e0 <HAL_RCC_OscConfig+0x4d8>)
 8002338:	681b      	ldr	r3, [r3, #0]
 800233a:	f003 7300 	and.w	r3, r3, #33554432	; 0x2000000
 800233e:	2b00      	cmp	r3, #0
 8002340:	d0f0      	beq.n	8002324 <HAL_RCC_OscConfig+0x41c>
 8002342:	e045      	b.n	80023d0 <HAL_RCC_OscConfig+0x4c8>
        }
      }
      else
      {
        /* Disable the main PLL. */
        __HAL_RCC_PLL_DISABLE();
 8002344:	4b27      	ldr	r3, [pc, #156]	; (80023e4 <HAL_RCC_OscConfig+0x4dc>)
 8002346:	2200      	movs	r2, #0
 8002348:	601a      	str	r2, [r3, #0]

        /* Get Start Tick */
        tickstart = HAL_GetTick();
 800234a:	f7ff f8ed 	bl	8001528 <HAL_GetTick>
 800234e:	6138      	str	r0, [r7, #16]

        /* Wait till PLL is ready */
        while(__HAL_RCC_GET_FLAG(RCC_FLAG_PLLRDY) != RESET)
 8002350:	e008      	b.n	8002364 <HAL_RCC_OscConfig+0x45c>
        {
          if((HAL_GetTick() - tickstart ) > PLL_TIMEOUT_VALUE)
 8002352:	f7ff f8e9 	bl	8001528 <HAL_GetTick>
 8002356:	4602      	mov	r2, r0
 8002358:	693b      	ldr	r3, [r7, #16]
 800235a:	1ad3      	subs	r3, r2, r3
 800235c:	2b02      	cmp	r3, #2
 800235e:	d901      	bls.n	8002364 <HAL_RCC_OscConfig+0x45c>
          {
            return HAL_TIMEOUT;
 8002360:	2303      	movs	r3, #3
 8002362:	e036      	b.n	80023d2 <HAL_RCC_OscConfig+0x4ca>
        while(__HAL_RCC_GET_FLAG(RCC_FLAG_PLLRDY) != RESET)
 8002364:	4b1e      	ldr	r3, [pc, #120]	; (80023e0 <HAL_RCC_OscConfig+0x4d8>)
 8002366:	681b      	ldr	r3, [r3, #0]
 8002368:	f003 7300 	and.w	r3, r3, #33554432	; 0x2000000
 800236c:	2b00      	cmp	r3, #0
 800236e:	d1f0      	bne.n	8002352 <HAL_RCC_OscConfig+0x44a>
 8002370:	e02e      	b.n	80023d0 <HAL_RCC_OscConfig+0x4c8>
      }
    }
    else
    {
      /* Check if there is a request to disable the PLL used as System clock source */
      if((RCC_OscInitStruct->PLL.PLLState) == RCC_PLL_OFF)
 8002372:	687b      	ldr	r3, [r7, #4]
 8002374:	699b      	ldr	r3, [r3, #24]
 8002376:	2b01      	cmp	r3, #1
 8002378:	d101      	bne.n	800237e <HAL_RCC_OscConfig+0x476>
      {
        return HAL_ERROR;
 800237a:	2301      	movs	r3, #1
 800237c:	e029      	b.n	80023d2 <HAL_RCC_OscConfig+0x4ca>
      }
      else
      {
        /* Do not return HAL_ERROR if request repeats the current configuration */
        pll_config = RCC->CFGR;
 800237e:	4b18      	ldr	r3, [pc, #96]	; (80023e0 <HAL_RCC_OscConfig+0x4d8>)
 8002380:	689b      	ldr	r3, [r3, #8]
 8002382:	60fb      	str	r3, [r7, #12]
        if((READ_BIT(pll_config, RCC_PLLCFGR_PLLSRC) != RCC_OscInitStruct->PLL.PLLSource) ||
 8002384:	68fb      	ldr	r3, [r7, #12]
 8002386:	f403 0280 	and.w	r2, r3, #4194304	; 0x400000
 800238a:	687b      	ldr	r3, [r7, #4]
 800238c:	69db      	ldr	r3, [r3, #28]
 800238e:	429a      	cmp	r2, r3
 8002390:	d11c      	bne.n	80023cc <HAL_RCC_OscConfig+0x4c4>
           (READ_BIT(pll_config, RCC_PLLCFGR_PLLM) != RCC_OscInitStruct->PLL.PLLM) ||
 8002392:	68fb      	ldr	r3, [r7, #12]
 8002394:	f003 023f 	and.w	r2, r3, #63	; 0x3f
 8002398:	687b      	ldr	r3, [r7, #4]
 800239a:	6a1b      	ldr	r3, [r3, #32]
        if((READ_BIT(pll_config, RCC_PLLCFGR_PLLSRC) != RCC_OscInitStruct->PLL.PLLSource) ||
 800239c:	429a      	cmp	r2, r3
 800239e:	d115      	bne.n	80023cc <HAL_RCC_OscConfig+0x4c4>
           (READ_BIT(pll_config, RCC_PLLCFGR_PLLN) != RCC_OscInitStruct->PLL.PLLN) ||
 80023a0:	68fa      	ldr	r2, [r7, #12]
 80023a2:	f647 73c0 	movw	r3, #32704	; 0x7fc0
 80023a6:	4013      	ands	r3, r2
 80023a8:	687a      	ldr	r2, [r7, #4]
 80023aa:	6a52      	ldr	r2, [r2, #36]	; 0x24
           (READ_BIT(pll_config, RCC_PLLCFGR_PLLM) != RCC_OscInitStruct->PLL.PLLM) ||
 80023ac:	4293      	cmp	r3, r2
 80023ae:	d10d      	bne.n	80023cc <HAL_RCC_OscConfig+0x4c4>
           (READ_BIT(pll_config, RCC_PLLCFGR_PLLP) != RCC_OscInitStruct->PLL.PLLP) ||
 80023b0:	68fb      	ldr	r3, [r7, #12]
 80023b2:	f403 3240 	and.w	r2, r3, #196608	; 0x30000
 80023b6:	687b      	ldr	r3, [r7, #4]
 80023b8:	6a9b      	ldr	r3, [r3, #40]	; 0x28
           (READ_BIT(pll_config, RCC_PLLCFGR_PLLN) != RCC_OscInitStruct->PLL.PLLN) ||
 80023ba:	429a      	cmp	r2, r3
 80023bc:	d106      	bne.n	80023cc <HAL_RCC_OscConfig+0x4c4>
           (READ_BIT(pll_config, RCC_PLLCFGR_PLLQ) != RCC_OscInitStruct->PLL.PLLQ))
 80023be:	68fb      	ldr	r3, [r7, #12]
 80023c0:	f003 6270 	and.w	r2, r3, #251658240	; 0xf000000
 80023c4:	687b      	ldr	r3, [r7, #4]
 80023c6:	6adb      	ldr	r3, [r3, #44]	; 0x2c
           (READ_BIT(pll_config, RCC_PLLCFGR_PLLP) != RCC_OscInitStruct->PLL.PLLP) ||
 80023c8:	429a      	cmp	r2, r3
 80023ca:	d001      	beq.n	80023d0 <HAL_RCC_OscConfig+0x4c8>
        {
          return HAL_ERROR;
 80023cc:	2301      	movs	r3, #1
 80023ce:	e000      	b.n	80023d2 <HAL_RCC_OscConfig+0x4ca>
        }
      }
    }
  }
  return HAL_OK;
 80023d0:	2300      	movs	r3, #0
}
 80023d2:	4618      	mov	r0, r3
 80023d4:	3718      	adds	r7, #24
 80023d6:	46bd      	mov	sp, r7
 80023d8:	bd80      	pop	{r7, pc}
 80023da:	bf00      	nop
 80023dc:	40007000 	.word	0x40007000
 80023e0:	40023800 	.word	0x40023800
 80023e4:	42470060 	.word	0x42470060

080023e8 <HAL_RCC_ClockConfig>:
  *         HPRE[3:0] bits to ensure that HCLK not exceed the maximum allowed frequency
  *         (for more details refer to section above "Initialization/de-initialization functions")
  * @retval None
  */
HAL_StatusTypeDef HAL_RCC_ClockConfig(RCC_ClkInitTypeDef  *RCC_ClkInitStruct, uint32_t FLatency)
{
 80023e8:	b580      	push	{r7, lr}
 80023ea:	b084      	sub	sp, #16
 80023ec:	af00      	add	r7, sp, #0
 80023ee:	6078      	str	r0, [r7, #4]
 80023f0:	6039      	str	r1, [r7, #0]
  uint32_t tickstart;

  /* Check Null pointer */
  if(RCC_ClkInitStruct == NULL)
 80023f2:	687b      	ldr	r3, [r7, #4]
 80023f4:	2b00      	cmp	r3, #0
 80023f6:	d101      	bne.n	80023fc <HAL_RCC_ClockConfig+0x14>
  {
    return HAL_ERROR;
 80023f8:	2301      	movs	r3, #1
 80023fa:	e0cc      	b.n	8002596 <HAL_RCC_ClockConfig+0x1ae>
  /* To correctly read data from FLASH memory, the number of wait states (LATENCY)
    must be correctly programmed according to the frequency of the CPU clock
    (HCLK) and the supply voltage of the device. */

  /* Increasing the number of wait states because of higher CPU frequency */
  if(FLatency > __HAL_FLASH_GET_LATENCY())
 80023fc:	4b68      	ldr	r3, [pc, #416]	; (80025a0 <HAL_RCC_ClockConfig+0x1b8>)
 80023fe:	681b      	ldr	r3, [r3, #0]
 8002400:	f003 030f 	and.w	r3, r3, #15
 8002404:	683a      	ldr	r2, [r7, #0]
 8002406:	429a      	cmp	r2, r3
 8002408:	d90c      	bls.n	8002424 <HAL_RCC_ClockConfig+0x3c>
  {
    /* Program the new number of wait states to the LATENCY bits in the FLASH_ACR register */
    __HAL_FLASH_SET_LATENCY(FLatency);
 800240a:	4b65      	ldr	r3, [pc, #404]	; (80025a0 <HAL_RCC_ClockConfig+0x1b8>)
 800240c:	683a      	ldr	r2, [r7, #0]
 800240e:	b2d2      	uxtb	r2, r2
 8002410:	701a      	strb	r2, [r3, #0]

    /* Check that the new number of wait states is taken into account to access the Flash
    memory by reading the FLASH_ACR register */
    if(__HAL_FLASH_GET_LATENCY() != FLatency)
 8002412:	4b63      	ldr	r3, [pc, #396]	; (80025a0 <HAL_RCC_ClockConfig+0x1b8>)
 8002414:	681b      	ldr	r3, [r3, #0]
 8002416:	f003 030f 	and.w	r3, r3, #15
 800241a:	683a      	ldr	r2, [r7, #0]
 800241c:	429a      	cmp	r2, r3
 800241e:	d001      	beq.n	8002424 <HAL_RCC_ClockConfig+0x3c>
    {
      return HAL_ERROR;
 8002420:	2301      	movs	r3, #1
 8002422:	e0b8      	b.n	8002596 <HAL_RCC_ClockConfig+0x1ae>
    }
  }

  /*-------------------------- HCLK Configuration --------------------------*/
  if(((RCC_ClkInitStruct->ClockType) & RCC_CLOCKTYPE_HCLK) == RCC_CLOCKTYPE_HCLK)
 8002424:	687b      	ldr	r3, [r7, #4]
 8002426:	681b      	ldr	r3, [r3, #0]
 8002428:	f003 0302 	and.w	r3, r3, #2
 800242c:	2b00      	cmp	r3, #0
 800242e:	d020      	beq.n	8002472 <HAL_RCC_ClockConfig+0x8a>
  {
    /* Set the highest APBx dividers in order to ensure that we do not go through
       a non-spec phase whatever we decrease or increase HCLK. */
    if(((RCC_ClkInitStruct->ClockType) & RCC_CLOCKTYPE_PCLK1) == RCC_CLOCKTYPE_PCLK1)
 8002430:	687b      	ldr	r3, [r7, #4]
 8002432:	681b      	ldr	r3, [r3, #0]
 8002434:	f003 0304 	and.w	r3, r3, #4
 8002438:	2b00      	cmp	r3, #0
 800243a:	d005      	beq.n	8002448 <HAL_RCC_ClockConfig+0x60>
    {
      MODIFY_REG(RCC->CFGR, RCC_CFGR_PPRE1, RCC_HCLK_DIV16);
 800243c:	4b59      	ldr	r3, [pc, #356]	; (80025a4 <HAL_RCC_ClockConfig+0x1bc>)
 800243e:	689b      	ldr	r3, [r3, #8]
 8002440:	4a58      	ldr	r2, [pc, #352]	; (80025a4 <HAL_RCC_ClockConfig+0x1bc>)
 8002442:	f443 53e0 	orr.w	r3, r3, #7168	; 0x1c00
 8002446:	6093      	str	r3, [r2, #8]
    }

    if(((RCC_ClkInitStruct->ClockType) & RCC_CLOCKTYPE_PCLK2) == RCC_CLOCKTYPE_PCLK2)
 8002448:	687b      	ldr	r3, [r7, #4]
 800244a:	681b      	ldr	r3, [r3, #0]
 800244c:	f003 0308 	and.w	r3, r3, #8
 8002450:	2b00      	cmp	r3, #0
 8002452:	d005      	beq.n	8002460 <HAL_RCC_ClockConfig+0x78>
    {
      MODIFY_REG(RCC->CFGR, RCC_CFGR_PPRE2, (RCC_HCLK_DIV16 << 3));
 8002454:	4b53      	ldr	r3, [pc, #332]	; (80025a4 <HAL_RCC_ClockConfig+0x1bc>)
 8002456:	689b      	ldr	r3, [r3, #8]
 8002458:	4a52      	ldr	r2, [pc, #328]	; (80025a4 <HAL_RCC_ClockConfig+0x1bc>)
 800245a:	f443 4360 	orr.w	r3, r3, #57344	; 0xe000
 800245e:	6093      	str	r3, [r2, #8]
    }

    assert_param(IS_RCC_HCLK(RCC_ClkInitStruct->AHBCLKDivider));
    MODIFY_REG(RCC->CFGR, RCC_CFGR_HPRE, RCC_ClkInitStruct->AHBCLKDivider);
 8002460:	4b50      	ldr	r3, [pc, #320]	; (80025a4 <HAL_RCC_ClockConfig+0x1bc>)
 8002462:	689b      	ldr	r3, [r3, #8]
 8002464:	f023 02f0 	bic.w	r2, r3, #240	; 0xf0
 8002468:	687b      	ldr	r3, [r7, #4]
 800246a:	689b      	ldr	r3, [r3, #8]
 800246c:	494d      	ldr	r1, [pc, #308]	; (80025a4 <HAL_RCC_ClockConfig+0x1bc>)
 800246e:	4313      	orrs	r3, r2
 8002470:	608b      	str	r3, [r1, #8]
  }

  /*------------------------- SYSCLK Configuration ---------------------------*/
  if(((RCC_ClkInitStruct->ClockType) & RCC_CLOCKTYPE_SYSCLK) == RCC_CLOCKTYPE_SYSCLK)
 8002472:	687b      	ldr	r3, [r7, #4]
 8002474:	681b      	ldr	r3, [r3, #0]
 8002476:	f003 0301 	and.w	r3, r3, #1
 800247a:	2b00      	cmp	r3, #0
 800247c:	d044      	beq.n	8002508 <HAL_RCC_ClockConfig+0x120>
  {
    assert_param(IS_RCC_SYSCLKSOURCE(RCC_ClkInitStruct->SYSCLKSource));

    /* HSE is selected as System Clock Source */
    if(RCC_ClkInitStruct->SYSCLKSource == RCC_SYSCLKSOURCE_HSE)
 800247e:	687b      	ldr	r3, [r7, #4]
 8002480:	685b      	ldr	r3, [r3, #4]
 8002482:	2b01      	cmp	r3, #1
 8002484:	d107      	bne.n	8002496 <HAL_RCC_ClockConfig+0xae>
    {
      /* Check the HSE ready flag */
      if(__HAL_RCC_GET_FLAG(RCC_FLAG_HSERDY) == RESET)
 8002486:	4b47      	ldr	r3, [pc, #284]	; (80025a4 <HAL_RCC_ClockConfig+0x1bc>)
 8002488:	681b      	ldr	r3, [r3, #0]
 800248a:	f403 3300 	and.w	r3, r3, #131072	; 0x20000
 800248e:	2b00      	cmp	r3, #0
 8002490:	d119      	bne.n	80024c6 <HAL_RCC_ClockConfig+0xde>
      {
        return HAL_ERROR;
 8002492:	2301      	movs	r3, #1
 8002494:	e07f      	b.n	8002596 <HAL_RCC_ClockConfig+0x1ae>
      }
    }
    /* PLL is selected as System Clock Source */
    else if((RCC_ClkInitStruct->SYSCLKSource == RCC_SYSCLKSOURCE_PLLCLK)   ||
 8002496:	687b      	ldr	r3, [r7, #4]
 8002498:	685b      	ldr	r3, [r3, #4]
 800249a:	2b02      	cmp	r3, #2
 800249c:	d003      	beq.n	80024a6 <HAL_RCC_ClockConfig+0xbe>
            (RCC_ClkInitStruct->SYSCLKSource == RCC_SYSCLKSOURCE_PLLRCLK))
 800249e:	687b      	ldr	r3, [r7, #4]
 80024a0:	685b      	ldr	r3, [r3, #4]
    else if((RCC_ClkInitStruct->SYSCLKSource == RCC_SYSCLKSOURCE_PLLCLK)   ||
 80024a2:	2b03      	cmp	r3, #3
 80024a4:	d107      	bne.n	80024b6 <HAL_RCC_ClockConfig+0xce>
    {
      /* Check the PLL ready flag */
      if(__HAL_RCC_GET_FLAG(RCC_FLAG_PLLRDY) == RESET)
 80024a6:	4b3f      	ldr	r3, [pc, #252]	; (80025a4 <HAL_RCC_ClockConfig+0x1bc>)
 80024a8:	681b      	ldr	r3, [r3, #0]
 80024aa:	f003 7300 	and.w	r3, r3, #33554432	; 0x2000000
 80024ae:	2b00      	cmp	r3, #0
 80024b0:	d109      	bne.n	80024c6 <HAL_RCC_ClockConfig+0xde>
      {
        return HAL_ERROR;
 80024b2:	2301      	movs	r3, #1
 80024b4:	e06f      	b.n	8002596 <HAL_RCC_ClockConfig+0x1ae>
    }
    /* HSI is selected as System Clock Source */
    else
    {
      /* Check the HSI ready flag */
      if(__HAL_RCC_GET_FLAG(RCC_FLAG_HSIRDY) == RESET)
 80024b6:	4b3b      	ldr	r3, [pc, #236]	; (80025a4 <HAL_RCC_ClockConfig+0x1bc>)
 80024b8:	681b      	ldr	r3, [r3, #0]
 80024ba:	f003 0302 	and.w	r3, r3, #2
 80024be:	2b00      	cmp	r3, #0
 80024c0:	d101      	bne.n	80024c6 <HAL_RCC_ClockConfig+0xde>
      {
        return HAL_ERROR;
 80024c2:	2301      	movs	r3, #1
 80024c4:	e067      	b.n	8002596 <HAL_RCC_ClockConfig+0x1ae>
      }
    }

    __HAL_RCC_SYSCLK_CONFIG(RCC_ClkInitStruct->SYSCLKSource);
 80024c6:	4b37      	ldr	r3, [pc, #220]	; (80025a4 <HAL_RCC_ClockConfig+0x1bc>)
 80024c8:	689b      	ldr	r3, [r3, #8]
 80024ca:	f023 0203 	bic.w	r2, r3, #3
 80024ce:	687b      	ldr	r3, [r7, #4]
 80024d0:	685b      	ldr	r3, [r3, #4]
 80024d2:	4934      	ldr	r1, [pc, #208]	; (80025a4 <HAL_RCC_ClockConfig+0x1bc>)
 80024d4:	4313      	orrs	r3, r2
 80024d6:	608b      	str	r3, [r1, #8]

    /* Get Start Tick */
    tickstart = HAL_GetTick();
 80024d8:	f7ff f826 	bl	8001528 <HAL_GetTick>
 80024dc:	60f8      	str	r0, [r7, #12]

    while (__HAL_RCC_GET_SYSCLK_SOURCE() != (RCC_ClkInitStruct->SYSCLKSource << RCC_CFGR_SWS_Pos))
 80024de:	e00a      	b.n	80024f6 <HAL_RCC_ClockConfig+0x10e>
    {
      if ((HAL_GetTick() - tickstart) > CLOCKSWITCH_TIMEOUT_VALUE)
 80024e0:	f7ff f822 	bl	8001528 <HAL_GetTick>
 80024e4:	4602      	mov	r2, r0
 80024e6:	68fb      	ldr	r3, [r7, #12]
 80024e8:	1ad3      	subs	r3, r2, r3
 80024ea:	f241 3288 	movw	r2, #5000	; 0x1388
 80024ee:	4293      	cmp	r3, r2
 80024f0:	d901      	bls.n	80024f6 <HAL_RCC_ClockConfig+0x10e>
      {
        return HAL_TIMEOUT;
 80024f2:	2303      	movs	r3, #3
 80024f4:	e04f      	b.n	8002596 <HAL_RCC_ClockConfig+0x1ae>
    while (__HAL_RCC_GET_SYSCLK_SOURCE() != (RCC_ClkInitStruct->SYSCLKSource << RCC_CFGR_SWS_Pos))
 80024f6:	4b2b      	ldr	r3, [pc, #172]	; (80025a4 <HAL_RCC_ClockConfig+0x1bc>)
 80024f8:	689b      	ldr	r3, [r3, #8]
 80024fa:	f003 020c 	and.w	r2, r3, #12
 80024fe:	687b      	ldr	r3, [r7, #4]
 8002500:	685b      	ldr	r3, [r3, #4]
 8002502:	009b      	lsls	r3, r3, #2
 8002504:	429a      	cmp	r2, r3
 8002506:	d1eb      	bne.n	80024e0 <HAL_RCC_ClockConfig+0xf8>
      }
    }
  }

  /* Decreasing the number of wait states because of lower CPU frequency */
  if(FLatency < __HAL_FLASH_GET_LATENCY())
 8002508:	4b25      	ldr	r3, [pc, #148]	; (80025a0 <HAL_RCC_ClockConfig+0x1b8>)
 800250a:	681b      	ldr	r3, [r3, #0]
 800250c:	f003 030f 	and.w	r3, r3, #15
 8002510:	683a      	ldr	r2, [r7, #0]
 8002512:	429a      	cmp	r2, r3
 8002514:	d20c      	bcs.n	8002530 <HAL_RCC_ClockConfig+0x148>
  {
     /* Program the new number of wait states to the LATENCY bits in the FLASH_ACR register */
    __HAL_FLASH_SET_LATENCY(FLatency);
 8002516:	4b22      	ldr	r3, [pc, #136]	; (80025a0 <HAL_RCC_ClockConfig+0x1b8>)
 8002518:	683a      	ldr	r2, [r7, #0]
 800251a:	b2d2      	uxtb	r2, r2
 800251c:	701a      	strb	r2, [r3, #0]

    /* Check that the new number of wait states is taken into account to access the Flash
    memory by reading the FLASH_ACR register */
    if(__HAL_FLASH_GET_LATENCY() != FLatency)
 800251e:	4b20      	ldr	r3, [pc, #128]	; (80025a0 <HAL_RCC_ClockConfig+0x1b8>)
 8002520:	681b      	ldr	r3, [r3, #0]
 8002522:	f003 030f 	and.w	r3, r3, #15
 8002526:	683a      	ldr	r2, [r7, #0]
 8002528:	429a      	cmp	r2, r3
 800252a:	d001      	beq.n	8002530 <HAL_RCC_ClockConfig+0x148>
    {
      return HAL_ERROR;
 800252c:	2301      	movs	r3, #1
 800252e:	e032      	b.n	8002596 <HAL_RCC_ClockConfig+0x1ae>
    }
  }

  /*-------------------------- PCLK1 Configuration ---------------------------*/
  if(((RCC_ClkInitStruct->ClockType) & RCC_CLOCKTYPE_PCLK1) == RCC_CLOCKTYPE_PCLK1)
 8002530:	687b      	ldr	r3, [r7, #4]
 8002532:	681b      	ldr	r3, [r3, #0]
 8002534:	f003 0304 	and.w	r3, r3, #4
 8002538:	2b00      	cmp	r3, #0
 800253a:	d008      	beq.n	800254e <HAL_RCC_ClockConfig+0x166>
  {
    assert_param(IS_RCC_PCLK(RCC_ClkInitStruct->APB1CLKDivider));
    MODIFY_REG(RCC->CFGR, RCC_CFGR_PPRE1, RCC_ClkInitStruct->APB1CLKDivider);
 800253c:	4b19      	ldr	r3, [pc, #100]	; (80025a4 <HAL_RCC_ClockConfig+0x1bc>)
 800253e:	689b      	ldr	r3, [r3, #8]
 8002540:	f423 52e0 	bic.w	r2, r3, #7168	; 0x1c00
 8002544:	687b      	ldr	r3, [r7, #4]
 8002546:	68db      	ldr	r3, [r3, #12]
 8002548:	4916      	ldr	r1, [pc, #88]	; (80025a4 <HAL_RCC_ClockConfig+0x1bc>)
 800254a:	4313      	orrs	r3, r2
 800254c:	608b      	str	r3, [r1, #8]
  }

  /*-------------------------- PCLK2 Configuration ---------------------------*/
  if(((RCC_ClkInitStruct->ClockType) & RCC_CLOCKTYPE_PCLK2) == RCC_CLOCKTYPE_PCLK2)
 800254e:	687b      	ldr	r3, [r7, #4]
 8002550:	681b      	ldr	r3, [r3, #0]
 8002552:	f003 0308 	and.w	r3, r3, #8
 8002556:	2b00      	cmp	r3, #0
 8002558:	d009      	beq.n	800256e <HAL_RCC_ClockConfig+0x186>
  {
    assert_param(IS_RCC_PCLK(RCC_ClkInitStruct->APB2CLKDivider));
    MODIFY_REG(RCC->CFGR, RCC_CFGR_PPRE2, ((RCC_ClkInitStruct->APB2CLKDivider) << 3U));
 800255a:	4b12      	ldr	r3, [pc, #72]	; (80025a4 <HAL_RCC_ClockConfig+0x1bc>)
 800255c:	689b      	ldr	r3, [r3, #8]
 800255e:	f423 4260 	bic.w	r2, r3, #57344	; 0xe000
 8002562:	687b      	ldr	r3, [r7, #4]
 8002564:	691b      	ldr	r3, [r3, #16]
 8002566:	00db      	lsls	r3, r3, #3
 8002568:	490e      	ldr	r1, [pc, #56]	; (80025a4 <HAL_RCC_ClockConfig+0x1bc>)
 800256a:	4313      	orrs	r3, r2
 800256c:	608b      	str	r3, [r1, #8]
  }

  /* Update the SystemCoreClock global variable */
  SystemCoreClock = HAL_RCC_GetSysClockFreq() >> AHBPrescTable[(RCC->CFGR & RCC_CFGR_HPRE)>> RCC_CFGR_HPRE_Pos];
 800256e:	f000 f821 	bl	80025b4 <HAL_RCC_GetSysClockFreq>
 8002572:	4601      	mov	r1, r0
 8002574:	4b0b      	ldr	r3, [pc, #44]	; (80025a4 <HAL_RCC_ClockConfig+0x1bc>)
 8002576:	689b      	ldr	r3, [r3, #8]
 8002578:	091b      	lsrs	r3, r3, #4
 800257a:	f003 030f 	and.w	r3, r3, #15
 800257e:	4a0a      	ldr	r2, [pc, #40]	; (80025a8 <HAL_RCC_ClockConfig+0x1c0>)
 8002580:	5cd3      	ldrb	r3, [r2, r3]
 8002582:	fa21 f303 	lsr.w	r3, r1, r3
 8002586:	4a09      	ldr	r2, [pc, #36]	; (80025ac <HAL_RCC_ClockConfig+0x1c4>)
 8002588:	6013      	str	r3, [r2, #0]

  /* Configure the source of time base considering new system clocks settings */
  HAL_InitTick (uwTickPrio);
 800258a:	4b09      	ldr	r3, [pc, #36]	; (80025b0 <HAL_RCC_ClockConfig+0x1c8>)
 800258c:	681b      	ldr	r3, [r3, #0]
 800258e:	4618      	mov	r0, r3
 8002590:	f7fe ff86 	bl	80014a0 <HAL_InitTick>

  return HAL_OK;
 8002594:	2300      	movs	r3, #0
}
 8002596:	4618      	mov	r0, r3
 8002598:	3710      	adds	r7, #16
 800259a:	46bd      	mov	sp, r7
 800259c:	bd80      	pop	{r7, pc}
 800259e:	bf00      	nop
 80025a0:	40023c00 	.word	0x40023c00
 80025a4:	40023800 	.word	0x40023800
 80025a8:	08004bc0 	.word	0x08004bc0
 80025ac:	20000000 	.word	0x20000000
 80025b0:	20000004 	.word	0x20000004

080025b4 <HAL_RCC_GetSysClockFreq>:
  *
  *
  * @retval SYSCLK frequency
  */
__weak uint32_t HAL_RCC_GetSysClockFreq(void)
{
 80025b4:	b5f0      	push	{r4, r5, r6, r7, lr}
 80025b6:	b085      	sub	sp, #20
 80025b8:	af00      	add	r7, sp, #0
  uint32_t pllm = 0U, pllvco = 0U, pllp = 0U;
 80025ba:	2300      	movs	r3, #0
 80025bc:	607b      	str	r3, [r7, #4]
 80025be:	2300      	movs	r3, #0
 80025c0:	60fb      	str	r3, [r7, #12]
 80025c2:	2300      	movs	r3, #0
 80025c4:	603b      	str	r3, [r7, #0]
  uint32_t sysclockfreq = 0U;
 80025c6:	2300      	movs	r3, #0
 80025c8:	60bb      	str	r3, [r7, #8]

  /* Get SYSCLK source -------------------------------------------------------*/
  switch (RCC->CFGR & RCC_CFGR_SWS)
 80025ca:	4b50      	ldr	r3, [pc, #320]	; (800270c <HAL_RCC_GetSysClockFreq+0x158>)
 80025cc:	689b      	ldr	r3, [r3, #8]
 80025ce:	f003 030c 	and.w	r3, r3, #12
 80025d2:	2b04      	cmp	r3, #4
 80025d4:	d007      	beq.n	80025e6 <HAL_RCC_GetSysClockFreq+0x32>
 80025d6:	2b08      	cmp	r3, #8
 80025d8:	d008      	beq.n	80025ec <HAL_RCC_GetSysClockFreq+0x38>
 80025da:	2b00      	cmp	r3, #0
 80025dc:	f040 808d 	bne.w	80026fa <HAL_RCC_GetSysClockFreq+0x146>
  {
    case RCC_CFGR_SWS_HSI:  /* HSI used as system clock source */
    {
      sysclockfreq = HSI_VALUE;
 80025e0:	4b4b      	ldr	r3, [pc, #300]	; (8002710 <HAL_RCC_GetSysClockFreq+0x15c>)
 80025e2:	60bb      	str	r3, [r7, #8]
       break;
 80025e4:	e08c      	b.n	8002700 <HAL_RCC_GetSysClockFreq+0x14c>
    }
    case RCC_CFGR_SWS_HSE:  /* HSE used as system clock  source */
    {
      sysclockfreq = HSE_VALUE;
 80025e6:	4b4b      	ldr	r3, [pc, #300]	; (8002714 <HAL_RCC_GetSysClockFreq+0x160>)
 80025e8:	60bb      	str	r3, [r7, #8]
      break;
 80025ea:	e089      	b.n	8002700 <HAL_RCC_GetSysClockFreq+0x14c>
    }
    case RCC_CFGR_SWS_PLL:  /* PLL used as system clock  source */
    {
      /* PLL_VCO = (HSE_VALUE or HSI_VALUE / PLLM) * PLLN
      SYSCLK = PLL_VCO / PLLP */
      pllm = RCC->PLLCFGR & RCC_PLLCFGR_PLLM;
 80025ec:	4b47      	ldr	r3, [pc, #284]	; (800270c <HAL_RCC_GetSysClockFreq+0x158>)
 80025ee:	685b      	ldr	r3, [r3, #4]
 80025f0:	f003 033f 	and.w	r3, r3, #63	; 0x3f
 80025f4:	607b      	str	r3, [r7, #4]
      if(__HAL_RCC_GET_PLL_OSCSOURCE() != RCC_PLLSOURCE_HSI)
 80025f6:	4b45      	ldr	r3, [pc, #276]	; (800270c <HAL_RCC_GetSysClockFreq+0x158>)
 80025f8:	685b      	ldr	r3, [r3, #4]
 80025fa:	f403 0380 	and.w	r3, r3, #4194304	; 0x400000
 80025fe:	2b00      	cmp	r3, #0
 8002600:	d023      	beq.n	800264a <HAL_RCC_GetSysClockFreq+0x96>
      {
        /* HSE used as PLL clock source */
        pllvco = (uint32_t) ((((uint64_t) HSE_VALUE * ((uint64_t) ((RCC->PLLCFGR & RCC_PLLCFGR_PLLN) >> RCC_PLLCFGR_PLLN_Pos)))) / (uint64_t)pllm);
 8002602:	4b42      	ldr	r3, [pc, #264]	; (800270c <HAL_RCC_GetSysClockFreq+0x158>)
 8002604:	685b      	ldr	r3, [r3, #4]
 8002606:	099b      	lsrs	r3, r3, #6
 8002608:	f04f 0400 	mov.w	r4, #0
 800260c:	f240 11ff 	movw	r1, #511	; 0x1ff
 8002610:	f04f 0200 	mov.w	r2, #0
 8002614:	ea03 0501 	and.w	r5, r3, r1
 8002618:	ea04 0602 	and.w	r6, r4, r2
 800261c:	4a3d      	ldr	r2, [pc, #244]	; (8002714 <HAL_RCC_GetSysClockFreq+0x160>)
 800261e:	fb02 f106 	mul.w	r1, r2, r6
 8002622:	2200      	movs	r2, #0
 8002624:	fb02 f205 	mul.w	r2, r2, r5
 8002628:	440a      	add	r2, r1
 800262a:	493a      	ldr	r1, [pc, #232]	; (8002714 <HAL_RCC_GetSysClockFreq+0x160>)
 800262c:	fba5 0101 	umull	r0, r1, r5, r1
 8002630:	1853      	adds	r3, r2, r1
 8002632:	4619      	mov	r1, r3
 8002634:	687b      	ldr	r3, [r7, #4]
 8002636:	f04f 0400 	mov.w	r4, #0
 800263a:	461a      	mov	r2, r3
 800263c:	4623      	mov	r3, r4
 800263e:	f7fe fa67 	bl	8000b10 <__aeabi_uldivmod>
 8002642:	4603      	mov	r3, r0
 8002644:	460c      	mov	r4, r1
 8002646:	60fb      	str	r3, [r7, #12]
 8002648:	e049      	b.n	80026de <HAL_RCC_GetSysClockFreq+0x12a>
      }
      else
      {
        /* HSI used as PLL clock source */
        pllvco = (uint32_t) ((((uint64_t) HSI_VALUE * ((uint64_t) ((RCC->PLLCFGR & RCC_PLLCFGR_PLLN) >> RCC_PLLCFGR_PLLN_Pos)))) / (uint64_t)pllm);
 800264a:	4b30      	ldr	r3, [pc, #192]	; (800270c <HAL_RCC_GetSysClockFreq+0x158>)
 800264c:	685b      	ldr	r3, [r3, #4]
 800264e:	099b      	lsrs	r3, r3, #6
 8002650:	f04f 0400 	mov.w	r4, #0
 8002654:	f240 11ff 	movw	r1, #511	; 0x1ff
 8002658:	f04f 0200 	mov.w	r2, #0
 800265c:	ea03 0501 	and.w	r5, r3, r1
 8002660:	ea04 0602 	and.w	r6, r4, r2
 8002664:	4629      	mov	r1, r5
 8002666:	4632      	mov	r2, r6
 8002668:	f04f 0300 	mov.w	r3, #0
 800266c:	f04f 0400 	mov.w	r4, #0
 8002670:	0154      	lsls	r4, r2, #5
 8002672:	ea44 64d1 	orr.w	r4, r4, r1, lsr #27
 8002676:	014b      	lsls	r3, r1, #5
 8002678:	4619      	mov	r1, r3
 800267a:	4622      	mov	r2, r4
 800267c:	1b49      	subs	r1, r1, r5
 800267e:	eb62 0206 	sbc.w	r2, r2, r6
 8002682:	f04f 0300 	mov.w	r3, #0
 8002686:	f04f 0400 	mov.w	r4, #0
 800268a:	0194      	lsls	r4, r2, #6
 800268c:	ea44 6491 	orr.w	r4, r4, r1, lsr #26
 8002690:	018b      	lsls	r3, r1, #6
 8002692:	1a5b      	subs	r3, r3, r1
 8002694:	eb64 0402 	sbc.w	r4, r4, r2
 8002698:	f04f 0100 	mov.w	r1, #0
 800269c:	f04f 0200 	mov.w	r2, #0
 80026a0:	00e2      	lsls	r2, r4, #3
 80026a2:	ea42 7253 	orr.w	r2, r2, r3, lsr #29
 80026a6:	00d9      	lsls	r1, r3, #3
 80026a8:	460b      	mov	r3, r1
 80026aa:	4614      	mov	r4, r2
 80026ac:	195b      	adds	r3, r3, r5
 80026ae:	eb44 0406 	adc.w	r4, r4, r6
 80026b2:	f04f 0100 	mov.w	r1, #0
 80026b6:	f04f 0200 	mov.w	r2, #0
 80026ba:	02a2      	lsls	r2, r4, #10
 80026bc:	ea42 5293 	orr.w	r2, r2, r3, lsr #22
 80026c0:	0299      	lsls	r1, r3, #10
 80026c2:	460b      	mov	r3, r1
 80026c4:	4614      	mov	r4, r2
 80026c6:	4618      	mov	r0, r3
 80026c8:	4621      	mov	r1, r4
 80026ca:	687b      	ldr	r3, [r7, #4]
 80026cc:	f04f 0400 	mov.w	r4, #0
 80026d0:	461a      	mov	r2, r3
 80026d2:	4623      	mov	r3, r4
 80026d4:	f7fe fa1c 	bl	8000b10 <__aeabi_uldivmod>
 80026d8:	4603      	mov	r3, r0
 80026da:	460c      	mov	r4, r1
 80026dc:	60fb      	str	r3, [r7, #12]
      }
      pllp = ((((RCC->PLLCFGR & RCC_PLLCFGR_PLLP) >> RCC_PLLCFGR_PLLP_Pos) + 1U) *2U);
 80026de:	4b0b      	ldr	r3, [pc, #44]	; (800270c <HAL_RCC_GetSysClockFreq+0x158>)
 80026e0:	685b      	ldr	r3, [r3, #4]
 80026e2:	0c1b      	lsrs	r3, r3, #16
 80026e4:	f003 0303 	and.w	r3, r3, #3
 80026e8:	3301      	adds	r3, #1
 80026ea:	005b      	lsls	r3, r3, #1
 80026ec:	603b      	str	r3, [r7, #0]

      sysclockfreq = pllvco/pllp;
 80026ee:	68fa      	ldr	r2, [r7, #12]
 80026f0:	683b      	ldr	r3, [r7, #0]
 80026f2:	fbb2 f3f3 	udiv	r3, r2, r3
 80026f6:	60bb      	str	r3, [r7, #8]
      break;
 80026f8:	e002      	b.n	8002700 <HAL_RCC_GetSysClockFreq+0x14c>
    }
    default:
    {
      sysclockfreq = HSI_VALUE;
 80026fa:	4b05      	ldr	r3, [pc, #20]	; (8002710 <HAL_RCC_GetSysClockFreq+0x15c>)
 80026fc:	60bb      	str	r3, [r7, #8]
      break;
 80026fe:	bf00      	nop
    }
  }
  return sysclockfreq;
 8002700:	68bb      	ldr	r3, [r7, #8]
}
 8002702:	4618      	mov	r0, r3
 8002704:	3714      	adds	r7, #20
 8002706:	46bd      	mov	sp, r7
 8002708:	bdf0      	pop	{r4, r5, r6, r7, pc}
 800270a:	bf00      	nop
 800270c:	40023800 	.word	0x40023800
 8002710:	00f42400 	.word	0x00f42400
 8002714:	017d7840 	.word	0x017d7840

08002718 <HAL_RCC_GetHCLKFreq>:
  * @note   The SystemCoreClock CMSIS variable is used to store System Clock Frequency
  *         and updated within this function
  * @retval HCLK frequency
  */
uint32_t HAL_RCC_GetHCLKFreq(void)
{
 8002718:	b480      	push	{r7}
 800271a:	af00      	add	r7, sp, #0
  return SystemCoreClock;
 800271c:	4b03      	ldr	r3, [pc, #12]	; (800272c <HAL_RCC_GetHCLKFreq+0x14>)
 800271e:	681b      	ldr	r3, [r3, #0]
}
 8002720:	4618      	mov	r0, r3
 8002722:	46bd      	mov	sp, r7
 8002724:	f85d 7b04 	ldr.w	r7, [sp], #4
 8002728:	4770      	bx	lr
 800272a:	bf00      	nop
 800272c:	20000000 	.word	0x20000000

08002730 <HAL_RCC_GetPCLK1Freq>:
  * @note   Each time PCLK1 changes, this function must be called to update the
  *         right PCLK1 value. Otherwise, any configuration based on this function will be incorrect.
  * @retval PCLK1 frequency
  */
uint32_t HAL_RCC_GetPCLK1Freq(void)
{
 8002730:	b580      	push	{r7, lr}
 8002732:	af00      	add	r7, sp, #0
  /* Get HCLK source and Compute PCLK1 frequency ---------------------------*/
  return (HAL_RCC_GetHCLKFreq() >> APBPrescTable[(RCC->CFGR & RCC_CFGR_PPRE1)>> RCC_CFGR_PPRE1_Pos]);
 8002734:	f7ff fff0 	bl	8002718 <HAL_RCC_GetHCLKFreq>
 8002738:	4601      	mov	r1, r0
 800273a:	4b05      	ldr	r3, [pc, #20]	; (8002750 <HAL_RCC_GetPCLK1Freq+0x20>)
 800273c:	689b      	ldr	r3, [r3, #8]
 800273e:	0a9b      	lsrs	r3, r3, #10
 8002740:	f003 0307 	and.w	r3, r3, #7
 8002744:	4a03      	ldr	r2, [pc, #12]	; (8002754 <HAL_RCC_GetPCLK1Freq+0x24>)
 8002746:	5cd3      	ldrb	r3, [r2, r3]
 8002748:	fa21 f303 	lsr.w	r3, r1, r3
}
 800274c:	4618      	mov	r0, r3
 800274e:	bd80      	pop	{r7, pc}
 8002750:	40023800 	.word	0x40023800
 8002754:	08004bd0 	.word	0x08004bd0

08002758 <HAL_RCC_GetPCLK2Freq>:
  * @note   Each time PCLK2 changes, this function must be called to update the
  *         right PCLK2 value. Otherwise, any configuration based on this function will be incorrect.
  * @retval PCLK2 frequency
  */
uint32_t HAL_RCC_GetPCLK2Freq(void)
{
 8002758:	b580      	push	{r7, lr}
 800275a:	af00      	add	r7, sp, #0
  /* Get HCLK source and Compute PCLK2 frequency ---------------------------*/
  return (HAL_RCC_GetHCLKFreq()>> APBPrescTable[(RCC->CFGR & RCC_CFGR_PPRE2)>> RCC_CFGR_PPRE2_Pos]);
 800275c:	f7ff ffdc 	bl	8002718 <HAL_RCC_GetHCLKFreq>
 8002760:	4601      	mov	r1, r0
 8002762:	4b05      	ldr	r3, [pc, #20]	; (8002778 <HAL_RCC_GetPCLK2Freq+0x20>)
 8002764:	689b      	ldr	r3, [r3, #8]
 8002766:	0b5b      	lsrs	r3, r3, #13
 8002768:	f003 0307 	and.w	r3, r3, #7
 800276c:	4a03      	ldr	r2, [pc, #12]	; (800277c <HAL_RCC_GetPCLK2Freq+0x24>)
 800276e:	5cd3      	ldrb	r3, [r2, r3]
 8002770:	fa21 f303 	lsr.w	r3, r1, r3
}
 8002774:	4618      	mov	r0, r3
 8002776:	bd80      	pop	{r7, pc}
 8002778:	40023800 	.word	0x40023800
 800277c:	08004bd0 	.word	0x08004bd0

08002780 <HAL_UART_Init>:
  * @param  huart  Pointer to a UART_HandleTypeDef structure that contains
  *                the configuration information for the specified UART module.
  * @retval HAL status
  */
HAL_StatusTypeDef HAL_UART_Init(UART_HandleTypeDef *huart)
{
 8002780:	b580      	push	{r7, lr}
 8002782:	b082      	sub	sp, #8
 8002784:	af00      	add	r7, sp, #0
 8002786:	6078      	str	r0, [r7, #4]
  /* Check the UART handle allocation */
  if (huart == NULL)
 8002788:	687b      	ldr	r3, [r7, #4]
 800278a:	2b00      	cmp	r3, #0
 800278c:	d101      	bne.n	8002792 <HAL_UART_Init+0x12>
  {
    return HAL_ERROR;
 800278e:	2301      	movs	r3, #1
 8002790:	e03f      	b.n	8002812 <HAL_UART_Init+0x92>
    assert_param(IS_UART_INSTANCE(huart->Instance));
  }
  assert_param(IS_UART_WORD_LENGTH(huart->Init.WordLength));
  assert_param(IS_UART_OVERSAMPLING(huart->Init.OverSampling));

  if (huart->gState == HAL_UART_STATE_RESET)
 8002792:	687b      	ldr	r3, [r7, #4]
 8002794:	f893 3039 	ldrb.w	r3, [r3, #57]	; 0x39
 8002798:	b2db      	uxtb	r3, r3
 800279a:	2b00      	cmp	r3, #0
 800279c:	d106      	bne.n	80027ac <HAL_UART_Init+0x2c>
  {
    /* Allocate lock resource and initialize it */
    huart->Lock = HAL_UNLOCKED;
 800279e:	687b      	ldr	r3, [r7, #4]
 80027a0:	2200      	movs	r2, #0
 80027a2:	f883 2038 	strb.w	r2, [r3, #56]	; 0x38

    /* Init the low level hardware */
    huart->MspInitCallback(huart);
#else
    /* Init the low level hardware : GPIO, CLOCK */
    HAL_UART_MspInit(huart);
 80027a6:	6878      	ldr	r0, [r7, #4]
 80027a8:	f7fe fd76 	bl	8001298 <HAL_UART_MspInit>
#endif /* (USE_HAL_UART_REGISTER_CALLBACKS) */
  }

  huart->gState = HAL_UART_STATE_BUSY;
 80027ac:	687b      	ldr	r3, [r7, #4]
 80027ae:	2224      	movs	r2, #36	; 0x24
 80027b0:	f883 2039 	strb.w	r2, [r3, #57]	; 0x39

  /* Disable the peripheral */
  __HAL_UART_DISABLE(huart);
 80027b4:	687b      	ldr	r3, [r7, #4]
 80027b6:	681b      	ldr	r3, [r3, #0]
 80027b8:	68da      	ldr	r2, [r3, #12]
 80027ba:	687b      	ldr	r3, [r7, #4]
 80027bc:	681b      	ldr	r3, [r3, #0]
 80027be:	f422 5200 	bic.w	r2, r2, #8192	; 0x2000
 80027c2:	60da      	str	r2, [r3, #12]

  /* Set the UART Communication parameters */
  UART_SetConfig(huart);
 80027c4:	6878      	ldr	r0, [r7, #4]
 80027c6:	f000 f919 	bl	80029fc <UART_SetConfig>

  /* In asynchronous mode, the following bits must be kept cleared:
     - LINEN and CLKEN bits in the USART_CR2 register,
     - SCEN, HDSEL and IREN  bits in the USART_CR3 register.*/
  CLEAR_BIT(huart->Instance->CR2, (USART_CR2_LINEN | USART_CR2_CLKEN));
 80027ca:	687b      	ldr	r3, [r7, #4]
 80027cc:	681b      	ldr	r3, [r3, #0]
 80027ce:	691a      	ldr	r2, [r3, #16]
 80027d0:	687b      	ldr	r3, [r7, #4]
 80027d2:	681b      	ldr	r3, [r3, #0]
 80027d4:	f422 4290 	bic.w	r2, r2, #18432	; 0x4800
 80027d8:	611a      	str	r2, [r3, #16]
  CLEAR_BIT(huart->Instance->CR3, (USART_CR3_SCEN | USART_CR3_HDSEL | USART_CR3_IREN));
 80027da:	687b      	ldr	r3, [r7, #4]
 80027dc:	681b      	ldr	r3, [r3, #0]
 80027de:	695a      	ldr	r2, [r3, #20]
 80027e0:	687b      	ldr	r3, [r7, #4]
 80027e2:	681b      	ldr	r3, [r3, #0]
 80027e4:	f022 022a 	bic.w	r2, r2, #42	; 0x2a
 80027e8:	615a      	str	r2, [r3, #20]

  /* Enable the peripheral */
  __HAL_UART_ENABLE(huart);
 80027ea:	687b      	ldr	r3, [r7, #4]
 80027ec:	681b      	ldr	r3, [r3, #0]
 80027ee:	68da      	ldr	r2, [r3, #12]
 80027f0:	687b      	ldr	r3, [r7, #4]
 80027f2:	681b      	ldr	r3, [r3, #0]
 80027f4:	f442 5200 	orr.w	r2, r2, #8192	; 0x2000
 80027f8:	60da      	str	r2, [r3, #12]

  /* Initialize the UART state */
  huart->ErrorCode = HAL_UART_ERROR_NONE;
 80027fa:	687b      	ldr	r3, [r7, #4]
 80027fc:	2200      	movs	r2, #0
 80027fe:	63da      	str	r2, [r3, #60]	; 0x3c
  huart->gState = HAL_UART_STATE_READY;
 8002800:	687b      	ldr	r3, [r7, #4]
 8002802:	2220      	movs	r2, #32
 8002804:	f883 2039 	strb.w	r2, [r3, #57]	; 0x39
  huart->RxState = HAL_UART_STATE_READY;
 8002808:	687b      	ldr	r3, [r7, #4]
 800280a:	2220      	movs	r2, #32
 800280c:	f883 203a 	strb.w	r2, [r3, #58]	; 0x3a

  return HAL_OK;
 8002810:	2300      	movs	r3, #0
}
 8002812:	4618      	mov	r0, r3
 8002814:	3708      	adds	r7, #8
 8002816:	46bd      	mov	sp, r7
 8002818:	bd80      	pop	{r7, pc}

0800281a <HAL_UART_Receive>:
  * @param  Size  Amount of data elements (u8 or u16) to be received.
  * @param  Timeout Timeout duration
  * @retval HAL status
  */
HAL_StatusTypeDef HAL_UART_Receive(UART_HandleTypeDef *huart, uint8_t *pData, uint16_t Size, uint32_t Timeout)
{
 800281a:	b580      	push	{r7, lr}
 800281c:	b088      	sub	sp, #32
 800281e:	af02      	add	r7, sp, #8
 8002820:	60f8      	str	r0, [r7, #12]
 8002822:	60b9      	str	r1, [r7, #8]
 8002824:	603b      	str	r3, [r7, #0]
 8002826:	4613      	mov	r3, r2
 8002828:	80fb      	strh	r3, [r7, #6]
  uint16_t *tmp;
  uint32_t tickstart = 0U;
 800282a:	2300      	movs	r3, #0
 800282c:	617b      	str	r3, [r7, #20]

  /* Check that a Rx process is not already ongoing */
  if (huart->RxState == HAL_UART_STATE_READY)
 800282e:	68fb      	ldr	r3, [r7, #12]
 8002830:	f893 303a 	ldrb.w	r3, [r3, #58]	; 0x3a
 8002834:	b2db      	uxtb	r3, r3
 8002836:	2b20      	cmp	r3, #32
 8002838:	f040 8090 	bne.w	800295c <HAL_UART_Receive+0x142>
  {
    if ((pData == NULL) || (Size == 0U))
 800283c:	68bb      	ldr	r3, [r7, #8]
 800283e:	2b00      	cmp	r3, #0
 8002840:	d002      	beq.n	8002848 <HAL_UART_Receive+0x2e>
 8002842:	88fb      	ldrh	r3, [r7, #6]
 8002844:	2b00      	cmp	r3, #0
 8002846:	d101      	bne.n	800284c <HAL_UART_Receive+0x32>
    {
      return  HAL_ERROR;
 8002848:	2301      	movs	r3, #1
 800284a:	e088      	b.n	800295e <HAL_UART_Receive+0x144>
    }

    /* Process Locked */
    __HAL_LOCK(huart);
 800284c:	68fb      	ldr	r3, [r7, #12]
 800284e:	f893 3038 	ldrb.w	r3, [r3, #56]	; 0x38
 8002852:	2b01      	cmp	r3, #1
 8002854:	d101      	bne.n	800285a <HAL_UART_Receive+0x40>
 8002856:	2302      	movs	r3, #2
 8002858:	e081      	b.n	800295e <HAL_UART_Receive+0x144>
 800285a:	68fb      	ldr	r3, [r7, #12]
 800285c:	2201      	movs	r2, #1
 800285e:	f883 2038 	strb.w	r2, [r3, #56]	; 0x38

    huart->ErrorCode = HAL_UART_ERROR_NONE;
 8002862:	68fb      	ldr	r3, [r7, #12]
 8002864:	2200      	movs	r2, #0
 8002866:	63da      	str	r2, [r3, #60]	; 0x3c
    huart->RxState = HAL_UART_STATE_BUSY_RX;
 8002868:	68fb      	ldr	r3, [r7, #12]
 800286a:	2222      	movs	r2, #34	; 0x22
 800286c:	f883 203a 	strb.w	r2, [r3, #58]	; 0x3a

    /* Init tickstart for timeout managment */
    tickstart = HAL_GetTick();
 8002870:	f7fe fe5a 	bl	8001528 <HAL_GetTick>
 8002874:	6178      	str	r0, [r7, #20]

    huart->RxXferSize = Size;
 8002876:	68fb      	ldr	r3, [r7, #12]
 8002878:	88fa      	ldrh	r2, [r7, #6]
 800287a:	859a      	strh	r2, [r3, #44]	; 0x2c
    huart->RxXferCount = Size;
 800287c:	68fb      	ldr	r3, [r7, #12]
 800287e:	88fa      	ldrh	r2, [r7, #6]
 8002880:	85da      	strh	r2, [r3, #46]	; 0x2e

    /* Process Unlocked */
    __HAL_UNLOCK(huart);
 8002882:	68fb      	ldr	r3, [r7, #12]
 8002884:	2200      	movs	r2, #0
 8002886:	f883 2038 	strb.w	r2, [r3, #56]	; 0x38

    /* Check the remain data to be received */
    while (huart->RxXferCount > 0U)
 800288a:	e05c      	b.n	8002946 <HAL_UART_Receive+0x12c>
    {
      huart->RxXferCount--;
 800288c:	68fb      	ldr	r3, [r7, #12]
 800288e:	8ddb      	ldrh	r3, [r3, #46]	; 0x2e
 8002890:	b29b      	uxth	r3, r3
 8002892:	3b01      	subs	r3, #1
 8002894:	b29a      	uxth	r2, r3
 8002896:	68fb      	ldr	r3, [r7, #12]
 8002898:	85da      	strh	r2, [r3, #46]	; 0x2e
      if (huart->Init.WordLength == UART_WORDLENGTH_9B)
 800289a:	68fb      	ldr	r3, [r7, #12]
 800289c:	689b      	ldr	r3, [r3, #8]
 800289e:	f5b3 5f80 	cmp.w	r3, #4096	; 0x1000
 80028a2:	d12b      	bne.n	80028fc <HAL_UART_Receive+0xe2>
      {
        if (UART_WaitOnFlagUntilTimeout(huart, UART_FLAG_RXNE, RESET, tickstart, Timeout) != HAL_OK)
 80028a4:	683b      	ldr	r3, [r7, #0]
 80028a6:	9300      	str	r3, [sp, #0]
 80028a8:	697b      	ldr	r3, [r7, #20]
 80028aa:	2200      	movs	r2, #0
 80028ac:	2120      	movs	r1, #32
 80028ae:	68f8      	ldr	r0, [r7, #12]
 80028b0:	f000 f859 	bl	8002966 <UART_WaitOnFlagUntilTimeout>
 80028b4:	4603      	mov	r3, r0
 80028b6:	2b00      	cmp	r3, #0
 80028b8:	d001      	beq.n	80028be <HAL_UART_Receive+0xa4>
        {
          return HAL_TIMEOUT;
 80028ba:	2303      	movs	r3, #3
 80028bc:	e04f      	b.n	800295e <HAL_UART_Receive+0x144>
        }
        tmp = (uint16_t *) pData;
 80028be:	68bb      	ldr	r3, [r7, #8]
 80028c0:	613b      	str	r3, [r7, #16]
        if (huart->Init.Parity == UART_PARITY_NONE)
 80028c2:	68fb      	ldr	r3, [r7, #12]
 80028c4:	691b      	ldr	r3, [r3, #16]
 80028c6:	2b00      	cmp	r3, #0
 80028c8:	d10c      	bne.n	80028e4 <HAL_UART_Receive+0xca>
        {
          *tmp = (uint16_t)(huart->Instance->DR & (uint16_t)0x01FF);
 80028ca:	68fb      	ldr	r3, [r7, #12]
 80028cc:	681b      	ldr	r3, [r3, #0]
 80028ce:	685b      	ldr	r3, [r3, #4]
 80028d0:	b29b      	uxth	r3, r3
 80028d2:	f3c3 0308 	ubfx	r3, r3, #0, #9
 80028d6:	b29a      	uxth	r2, r3
 80028d8:	693b      	ldr	r3, [r7, #16]
 80028da:	801a      	strh	r2, [r3, #0]
          pData += 2U;
 80028dc:	68bb      	ldr	r3, [r7, #8]
 80028de:	3302      	adds	r3, #2
 80028e0:	60bb      	str	r3, [r7, #8]
 80028e2:	e030      	b.n	8002946 <HAL_UART_Receive+0x12c>
        }
        else
        {
          *tmp = (uint16_t)(huart->Instance->DR & (uint16_t)0x00FF);
 80028e4:	68fb      	ldr	r3, [r7, #12]
 80028e6:	681b      	ldr	r3, [r3, #0]
 80028e8:	685b      	ldr	r3, [r3, #4]
 80028ea:	b29b      	uxth	r3, r3
 80028ec:	b2db      	uxtb	r3, r3
 80028ee:	b29a      	uxth	r2, r3
 80028f0:	693b      	ldr	r3, [r7, #16]
 80028f2:	801a      	strh	r2, [r3, #0]
          pData += 1U;
 80028f4:	68bb      	ldr	r3, [r7, #8]
 80028f6:	3301      	adds	r3, #1
 80028f8:	60bb      	str	r3, [r7, #8]
 80028fa:	e024      	b.n	8002946 <HAL_UART_Receive+0x12c>
        }

      }
      else
      {
        if (UART_WaitOnFlagUntilTimeout(huart, UART_FLAG_RXNE, RESET, tickstart, Timeout) != HAL_OK)
 80028fc:	683b      	ldr	r3, [r7, #0]
 80028fe:	9300      	str	r3, [sp, #0]
 8002900:	697b      	ldr	r3, [r7, #20]
 8002902:	2200      	movs	r2, #0
 8002904:	2120      	movs	r1, #32
 8002906:	68f8      	ldr	r0, [r7, #12]
 8002908:	f000 f82d 	bl	8002966 <UART_WaitOnFlagUntilTimeout>
 800290c:	4603      	mov	r3, r0
 800290e:	2b00      	cmp	r3, #0
 8002910:	d001      	beq.n	8002916 <HAL_UART_Receive+0xfc>
        {
          return HAL_TIMEOUT;
 8002912:	2303      	movs	r3, #3
 8002914:	e023      	b.n	800295e <HAL_UART_Receive+0x144>
        }
        if (huart->Init.Parity == UART_PARITY_NONE)
 8002916:	68fb      	ldr	r3, [r7, #12]
 8002918:	691b      	ldr	r3, [r3, #16]
 800291a:	2b00      	cmp	r3, #0
 800291c:	d108      	bne.n	8002930 <HAL_UART_Receive+0x116>
        {
          *pData++ = (uint8_t)(huart->Instance->DR & (uint8_t)0x00FF);
 800291e:	68fb      	ldr	r3, [r7, #12]
 8002920:	681b      	ldr	r3, [r3, #0]
 8002922:	6859      	ldr	r1, [r3, #4]
 8002924:	68bb      	ldr	r3, [r7, #8]
 8002926:	1c5a      	adds	r2, r3, #1
 8002928:	60ba      	str	r2, [r7, #8]
 800292a:	b2ca      	uxtb	r2, r1
 800292c:	701a      	strb	r2, [r3, #0]
 800292e:	e00a      	b.n	8002946 <HAL_UART_Receive+0x12c>
        }
        else
        {
          *pData++ = (uint8_t)(huart->Instance->DR & (uint8_t)0x007F);
 8002930:	68fb      	ldr	r3, [r7, #12]
 8002932:	681b      	ldr	r3, [r3, #0]
 8002934:	685b      	ldr	r3, [r3, #4]
 8002936:	b2da      	uxtb	r2, r3
 8002938:	68bb      	ldr	r3, [r7, #8]
 800293a:	1c59      	adds	r1, r3, #1
 800293c:	60b9      	str	r1, [r7, #8]
 800293e:	f002 027f 	and.w	r2, r2, #127	; 0x7f
 8002942:	b2d2      	uxtb	r2, r2
 8002944:	701a      	strb	r2, [r3, #0]
    while (huart->RxXferCount > 0U)
 8002946:	68fb      	ldr	r3, [r7, #12]
 8002948:	8ddb      	ldrh	r3, [r3, #46]	; 0x2e
 800294a:	b29b      	uxth	r3, r3
 800294c:	2b00      	cmp	r3, #0
 800294e:	d19d      	bne.n	800288c <HAL_UART_Receive+0x72>

      }
    }

    /* At end of Rx process, restore huart->RxState to Ready */
    huart->RxState = HAL_UART_STATE_READY;
 8002950:	68fb      	ldr	r3, [r7, #12]
 8002952:	2220      	movs	r2, #32
 8002954:	f883 203a 	strb.w	r2, [r3, #58]	; 0x3a

    return HAL_OK;
 8002958:	2300      	movs	r3, #0
 800295a:	e000      	b.n	800295e <HAL_UART_Receive+0x144>
  }
  else
  {
    return HAL_BUSY;
 800295c:	2302      	movs	r3, #2
  }
}
 800295e:	4618      	mov	r0, r3
 8002960:	3718      	adds	r7, #24
 8002962:	46bd      	mov	sp, r7
 8002964:	bd80      	pop	{r7, pc}

08002966 <UART_WaitOnFlagUntilTimeout>:
  * @param  Tickstart Tick start value
  * @param  Timeout Timeout duration
  * @retval HAL status
  */
static HAL_StatusTypeDef UART_WaitOnFlagUntilTimeout(UART_HandleTypeDef *huart, uint32_t Flag, FlagStatus Status, uint32_t Tickstart, uint32_t Timeout)
{
 8002966:	b580      	push	{r7, lr}
 8002968:	b084      	sub	sp, #16
 800296a:	af00      	add	r7, sp, #0
 800296c:	60f8      	str	r0, [r7, #12]
 800296e:	60b9      	str	r1, [r7, #8]
 8002970:	603b      	str	r3, [r7, #0]
 8002972:	4613      	mov	r3, r2
 8002974:	71fb      	strb	r3, [r7, #7]
  /* Wait until flag is set */
  while ((__HAL_UART_GET_FLAG(huart, Flag) ? SET : RESET) == Status)
 8002976:	e02c      	b.n	80029d2 <UART_WaitOnFlagUntilTimeout+0x6c>
  {
    /* Check for the Timeout */
    if (Timeout != HAL_MAX_DELAY)
 8002978:	69bb      	ldr	r3, [r7, #24]
 800297a:	f1b3 3fff 	cmp.w	r3, #4294967295
 800297e:	d028      	beq.n	80029d2 <UART_WaitOnFlagUntilTimeout+0x6c>
    {
      if ((Timeout == 0U) || ((HAL_GetTick() - Tickstart) > Timeout))
 8002980:	69bb      	ldr	r3, [r7, #24]
 8002982:	2b00      	cmp	r3, #0
 8002984:	d007      	beq.n	8002996 <UART_WaitOnFlagUntilTimeout+0x30>
 8002986:	f7fe fdcf 	bl	8001528 <HAL_GetTick>
 800298a:	4602      	mov	r2, r0
 800298c:	683b      	ldr	r3, [r7, #0]
 800298e:	1ad3      	subs	r3, r2, r3
 8002990:	69ba      	ldr	r2, [r7, #24]
 8002992:	429a      	cmp	r2, r3
 8002994:	d21d      	bcs.n	80029d2 <UART_WaitOnFlagUntilTimeout+0x6c>
      {
        /* Disable TXE, RXNE, PE and ERR (Frame error, noise error, overrun error) interrupts for the interrupt process */
        CLEAR_BIT(huart->Instance->CR1, (USART_CR1_RXNEIE | USART_CR1_PEIE | USART_CR1_TXEIE));
 8002996:	68fb      	ldr	r3, [r7, #12]
 8002998:	681b      	ldr	r3, [r3, #0]
 800299a:	68da      	ldr	r2, [r3, #12]
 800299c:	68fb      	ldr	r3, [r7, #12]
 800299e:	681b      	ldr	r3, [r3, #0]
 80029a0:	f422 72d0 	bic.w	r2, r2, #416	; 0x1a0
 80029a4:	60da      	str	r2, [r3, #12]
        CLEAR_BIT(huart->Instance->CR3, USART_CR3_EIE);
 80029a6:	68fb      	ldr	r3, [r7, #12]
 80029a8:	681b      	ldr	r3, [r3, #0]
 80029aa:	695a      	ldr	r2, [r3, #20]
 80029ac:	68fb      	ldr	r3, [r7, #12]
 80029ae:	681b      	ldr	r3, [r3, #0]
 80029b0:	f022 0201 	bic.w	r2, r2, #1
 80029b4:	615a      	str	r2, [r3, #20]

        huart->gState  = HAL_UART_STATE_READY;
 80029b6:	68fb      	ldr	r3, [r7, #12]
 80029b8:	2220      	movs	r2, #32
 80029ba:	f883 2039 	strb.w	r2, [r3, #57]	; 0x39
        huart->RxState = HAL_UART_STATE_READY;
 80029be:	68fb      	ldr	r3, [r7, #12]
 80029c0:	2220      	movs	r2, #32
 80029c2:	f883 203a 	strb.w	r2, [r3, #58]	; 0x3a

        /* Process Unlocked */
        __HAL_UNLOCK(huart);
 80029c6:	68fb      	ldr	r3, [r7, #12]
 80029c8:	2200      	movs	r2, #0
 80029ca:	f883 2038 	strb.w	r2, [r3, #56]	; 0x38

        return HAL_TIMEOUT;
 80029ce:	2303      	movs	r3, #3
 80029d0:	e00f      	b.n	80029f2 <UART_WaitOnFlagUntilTimeout+0x8c>
  while ((__HAL_UART_GET_FLAG(huart, Flag) ? SET : RESET) == Status)
 80029d2:	68fb      	ldr	r3, [r7, #12]
 80029d4:	681b      	ldr	r3, [r3, #0]
 80029d6:	681a      	ldr	r2, [r3, #0]
 80029d8:	68bb      	ldr	r3, [r7, #8]
 80029da:	4013      	ands	r3, r2
 80029dc:	68ba      	ldr	r2, [r7, #8]
 80029de:	429a      	cmp	r2, r3
 80029e0:	bf0c      	ite	eq
 80029e2:	2301      	moveq	r3, #1
 80029e4:	2300      	movne	r3, #0
 80029e6:	b2db      	uxtb	r3, r3
 80029e8:	461a      	mov	r2, r3
 80029ea:	79fb      	ldrb	r3, [r7, #7]
 80029ec:	429a      	cmp	r2, r3
 80029ee:	d0c3      	beq.n	8002978 <UART_WaitOnFlagUntilTimeout+0x12>
      }
    }
  }
  return HAL_OK;
 80029f0:	2300      	movs	r3, #0
}
 80029f2:	4618      	mov	r0, r3
 80029f4:	3710      	adds	r7, #16
 80029f6:	46bd      	mov	sp, r7
 80029f8:	bd80      	pop	{r7, pc}
	...

080029fc <UART_SetConfig>:
  * @param  huart  Pointer to a UART_HandleTypeDef structure that contains
  *                the configuration information for the specified UART module.
  * @retval None
  */
static void UART_SetConfig(UART_HandleTypeDef *huart)
{
 80029fc:	e92d 4ff0 	stmdb	sp!, {r4, r5, r6, r7, r8, r9, sl, fp, lr}
 8002a00:	b085      	sub	sp, #20
 8002a02:	af00      	add	r7, sp, #0
 8002a04:	6078      	str	r0, [r7, #4]
  assert_param(IS_UART_MODE(huart->Init.Mode));

  /*-------------------------- USART CR2 Configuration -----------------------*/
  /* Configure the UART Stop Bits: Set STOP[13:12] bits
     according to huart->Init.StopBits value */
  MODIFY_REG(huart->Instance->CR2, USART_CR2_STOP, huart->Init.StopBits);
 8002a06:	687b      	ldr	r3, [r7, #4]
 8002a08:	681b      	ldr	r3, [r3, #0]
 8002a0a:	691b      	ldr	r3, [r3, #16]
 8002a0c:	f423 5140 	bic.w	r1, r3, #12288	; 0x3000
 8002a10:	687b      	ldr	r3, [r7, #4]
 8002a12:	68da      	ldr	r2, [r3, #12]
 8002a14:	687b      	ldr	r3, [r7, #4]
 8002a16:	681b      	ldr	r3, [r3, #0]
 8002a18:	430a      	orrs	r2, r1
 8002a1a:	611a      	str	r2, [r3, #16]
     Set the M bits according to huart->Init.WordLength value
     Set PCE and PS bits according to huart->Init.Parity value
     Set TE and RE bits according to huart->Init.Mode value
     Set OVER8 bit according to huart->Init.OverSampling value */

  tmpreg = (uint32_t)huart->Init.WordLength | huart->Init.Parity | huart->Init.Mode | huart->Init.OverSampling;
 8002a1c:	687b      	ldr	r3, [r7, #4]
 8002a1e:	689a      	ldr	r2, [r3, #8]
 8002a20:	687b      	ldr	r3, [r7, #4]
 8002a22:	691b      	ldr	r3, [r3, #16]
 8002a24:	431a      	orrs	r2, r3
 8002a26:	687b      	ldr	r3, [r7, #4]
 8002a28:	695b      	ldr	r3, [r3, #20]
 8002a2a:	431a      	orrs	r2, r3
 8002a2c:	687b      	ldr	r3, [r7, #4]
 8002a2e:	69db      	ldr	r3, [r3, #28]
 8002a30:	4313      	orrs	r3, r2
 8002a32:	60fb      	str	r3, [r7, #12]
  MODIFY_REG(huart->Instance->CR1,
 8002a34:	687b      	ldr	r3, [r7, #4]
 8002a36:	681b      	ldr	r3, [r3, #0]
 8002a38:	68db      	ldr	r3, [r3, #12]
 8002a3a:	f423 4316 	bic.w	r3, r3, #38400	; 0x9600
 8002a3e:	f023 030c 	bic.w	r3, r3, #12
 8002a42:	687a      	ldr	r2, [r7, #4]
 8002a44:	6812      	ldr	r2, [r2, #0]
 8002a46:	68f9      	ldr	r1, [r7, #12]
 8002a48:	430b      	orrs	r3, r1
 8002a4a:	60d3      	str	r3, [r2, #12]
             (uint32_t)(USART_CR1_M | USART_CR1_PCE | USART_CR1_PS | USART_CR1_TE | USART_CR1_RE | USART_CR1_OVER8),
             tmpreg);

  /*-------------------------- USART CR3 Configuration -----------------------*/
  /* Configure the UART HFC: Set CTSE and RTSE bits according to huart->Init.HwFlowCtl value */
  MODIFY_REG(huart->Instance->CR3, (USART_CR3_RTSE | USART_CR3_CTSE), huart->Init.HwFlowCtl);
 8002a4c:	687b      	ldr	r3, [r7, #4]
 8002a4e:	681b      	ldr	r3, [r3, #0]
 8002a50:	695b      	ldr	r3, [r3, #20]
 8002a52:	f423 7140 	bic.w	r1, r3, #768	; 0x300
 8002a56:	687b      	ldr	r3, [r7, #4]
 8002a58:	699a      	ldr	r2, [r3, #24]
 8002a5a:	687b      	ldr	r3, [r7, #4]
 8002a5c:	681b      	ldr	r3, [r3, #0]
 8002a5e:	430a      	orrs	r2, r1
 8002a60:	615a      	str	r2, [r3, #20]

  /* Check the Over Sampling */
  if (huart->Init.OverSampling == UART_OVERSAMPLING_8)
 8002a62:	687b      	ldr	r3, [r7, #4]
 8002a64:	69db      	ldr	r3, [r3, #28]
 8002a66:	f5b3 4f00 	cmp.w	r3, #32768	; 0x8000
 8002a6a:	f040 818b 	bne.w	8002d84 <UART_SetConfig+0x388>
    {
      pclk = HAL_RCC_GetPCLK2Freq();
      huart->Instance->BRR = UART_BRR_SAMPLING8(pclk, huart->Init.BaudRate);
    }
#elif defined(USART6)
    if ((huart->Instance == USART1) || (huart->Instance == USART6))
 8002a6e:	687b      	ldr	r3, [r7, #4]
 8002a70:	681b      	ldr	r3, [r3, #0]
 8002a72:	4ac1      	ldr	r2, [pc, #772]	; (8002d78 <UART_SetConfig+0x37c>)
 8002a74:	4293      	cmp	r3, r2
 8002a76:	d005      	beq.n	8002a84 <UART_SetConfig+0x88>
 8002a78:	687b      	ldr	r3, [r7, #4]
 8002a7a:	681b      	ldr	r3, [r3, #0]
 8002a7c:	4abf      	ldr	r2, [pc, #764]	; (8002d7c <UART_SetConfig+0x380>)
 8002a7e:	4293      	cmp	r3, r2
 8002a80:	f040 80bd 	bne.w	8002bfe <UART_SetConfig+0x202>
    {
      pclk = HAL_RCC_GetPCLK2Freq();
 8002a84:	f7ff fe68 	bl	8002758 <HAL_RCC_GetPCLK2Freq>
 8002a88:	60b8      	str	r0, [r7, #8]
      huart->Instance->BRR = UART_BRR_SAMPLING8(pclk, huart->Init.BaudRate);
 8002a8a:	68bb      	ldr	r3, [r7, #8]
 8002a8c:	461d      	mov	r5, r3
 8002a8e:	f04f 0600 	mov.w	r6, #0
 8002a92:	46a8      	mov	r8, r5
 8002a94:	46b1      	mov	r9, r6
 8002a96:	eb18 0308 	adds.w	r3, r8, r8
 8002a9a:	eb49 0409 	adc.w	r4, r9, r9
 8002a9e:	4698      	mov	r8, r3
 8002aa0:	46a1      	mov	r9, r4
 8002aa2:	eb18 0805 	adds.w	r8, r8, r5
 8002aa6:	eb49 0906 	adc.w	r9, r9, r6
 8002aaa:	f04f 0100 	mov.w	r1, #0
 8002aae:	f04f 0200 	mov.w	r2, #0
 8002ab2:	ea4f 02c9 	mov.w	r2, r9, lsl #3
 8002ab6:	ea42 7258 	orr.w	r2, r2, r8, lsr #29
 8002aba:	ea4f 01c8 	mov.w	r1, r8, lsl #3
 8002abe:	4688      	mov	r8, r1
 8002ac0:	4691      	mov	r9, r2
 8002ac2:	eb18 0005 	adds.w	r0, r8, r5
 8002ac6:	eb49 0106 	adc.w	r1, r9, r6
 8002aca:	687b      	ldr	r3, [r7, #4]
 8002acc:	685b      	ldr	r3, [r3, #4]
 8002ace:	461d      	mov	r5, r3
 8002ad0:	f04f 0600 	mov.w	r6, #0
 8002ad4:	196b      	adds	r3, r5, r5
 8002ad6:	eb46 0406 	adc.w	r4, r6, r6
 8002ada:	461a      	mov	r2, r3
 8002adc:	4623      	mov	r3, r4
 8002ade:	f7fe f817 	bl	8000b10 <__aeabi_uldivmod>
 8002ae2:	4603      	mov	r3, r0
 8002ae4:	460c      	mov	r4, r1
 8002ae6:	461a      	mov	r2, r3
 8002ae8:	4ba5      	ldr	r3, [pc, #660]	; (8002d80 <UART_SetConfig+0x384>)
 8002aea:	fba3 2302 	umull	r2, r3, r3, r2
 8002aee:	095b      	lsrs	r3, r3, #5
 8002af0:	ea4f 1803 	mov.w	r8, r3, lsl #4
 8002af4:	68bb      	ldr	r3, [r7, #8]
 8002af6:	461d      	mov	r5, r3
 8002af8:	f04f 0600 	mov.w	r6, #0
 8002afc:	46a9      	mov	r9, r5
 8002afe:	46b2      	mov	sl, r6
 8002b00:	eb19 0309 	adds.w	r3, r9, r9
 8002b04:	eb4a 040a 	adc.w	r4, sl, sl
 8002b08:	4699      	mov	r9, r3
 8002b0a:	46a2      	mov	sl, r4
 8002b0c:	eb19 0905 	adds.w	r9, r9, r5
 8002b10:	eb4a 0a06 	adc.w	sl, sl, r6
 8002b14:	f04f 0100 	mov.w	r1, #0
 8002b18:	f04f 0200 	mov.w	r2, #0
 8002b1c:	ea4f 02ca 	mov.w	r2, sl, lsl #3
 8002b20:	ea42 7259 	orr.w	r2, r2, r9, lsr #29
 8002b24:	ea4f 01c9 	mov.w	r1, r9, lsl #3
 8002b28:	4689      	mov	r9, r1
 8002b2a:	4692      	mov	sl, r2
 8002b2c:	eb19 0005 	adds.w	r0, r9, r5
 8002b30:	eb4a 0106 	adc.w	r1, sl, r6
 8002b34:	687b      	ldr	r3, [r7, #4]
 8002b36:	685b      	ldr	r3, [r3, #4]
 8002b38:	461d      	mov	r5, r3
 8002b3a:	f04f 0600 	mov.w	r6, #0
 8002b3e:	196b      	adds	r3, r5, r5
 8002b40:	eb46 0406 	adc.w	r4, r6, r6
 8002b44:	461a      	mov	r2, r3
 8002b46:	4623      	mov	r3, r4
 8002b48:	f7fd ffe2 	bl	8000b10 <__aeabi_uldivmod>
 8002b4c:	4603      	mov	r3, r0
 8002b4e:	460c      	mov	r4, r1
 8002b50:	461a      	mov	r2, r3
 8002b52:	4b8b      	ldr	r3, [pc, #556]	; (8002d80 <UART_SetConfig+0x384>)
 8002b54:	fba3 1302 	umull	r1, r3, r3, r2
 8002b58:	095b      	lsrs	r3, r3, #5
 8002b5a:	2164      	movs	r1, #100	; 0x64
 8002b5c:	fb01 f303 	mul.w	r3, r1, r3
 8002b60:	1ad3      	subs	r3, r2, r3
 8002b62:	00db      	lsls	r3, r3, #3
 8002b64:	3332      	adds	r3, #50	; 0x32
 8002b66:	4a86      	ldr	r2, [pc, #536]	; (8002d80 <UART_SetConfig+0x384>)
 8002b68:	fba2 2303 	umull	r2, r3, r2, r3
 8002b6c:	095b      	lsrs	r3, r3, #5
 8002b6e:	005b      	lsls	r3, r3, #1
 8002b70:	f403 73f8 	and.w	r3, r3, #496	; 0x1f0
 8002b74:	4498      	add	r8, r3
 8002b76:	68bb      	ldr	r3, [r7, #8]
 8002b78:	461d      	mov	r5, r3
 8002b7a:	f04f 0600 	mov.w	r6, #0
 8002b7e:	46a9      	mov	r9, r5
 8002b80:	46b2      	mov	sl, r6
 8002b82:	eb19 0309 	adds.w	r3, r9, r9
 8002b86:	eb4a 040a 	adc.w	r4, sl, sl
 8002b8a:	4699      	mov	r9, r3
 8002b8c:	46a2      	mov	sl, r4
 8002b8e:	eb19 0905 	adds.w	r9, r9, r5
 8002b92:	eb4a 0a06 	adc.w	sl, sl, r6
 8002b96:	f04f 0100 	mov.w	r1, #0
 8002b9a:	f04f 0200 	mov.w	r2, #0
 8002b9e:	ea4f 02ca 	mov.w	r2, sl, lsl #3
 8002ba2:	ea42 7259 	orr.w	r2, r2, r9, lsr #29
 8002ba6:	ea4f 01c9 	mov.w	r1, r9, lsl #3
 8002baa:	4689      	mov	r9, r1
 8002bac:	4692      	mov	sl, r2
 8002bae:	eb19 0005 	adds.w	r0, r9, r5
 8002bb2:	eb4a 0106 	adc.w	r1, sl, r6
 8002bb6:	687b      	ldr	r3, [r7, #4]
 8002bb8:	685b      	ldr	r3, [r3, #4]
 8002bba:	461d      	mov	r5, r3
 8002bbc:	f04f 0600 	mov.w	r6, #0
 8002bc0:	196b      	adds	r3, r5, r5
 8002bc2:	eb46 0406 	adc.w	r4, r6, r6
 8002bc6:	461a      	mov	r2, r3
 8002bc8:	4623      	mov	r3, r4
 8002bca:	f7fd ffa1 	bl	8000b10 <__aeabi_uldivmod>
 8002bce:	4603      	mov	r3, r0
 8002bd0:	460c      	mov	r4, r1
 8002bd2:	461a      	mov	r2, r3
 8002bd4:	4b6a      	ldr	r3, [pc, #424]	; (8002d80 <UART_SetConfig+0x384>)
 8002bd6:	fba3 1302 	umull	r1, r3, r3, r2
 8002bda:	095b      	lsrs	r3, r3, #5
 8002bdc:	2164      	movs	r1, #100	; 0x64
 8002bde:	fb01 f303 	mul.w	r3, r1, r3
 8002be2:	1ad3      	subs	r3, r2, r3
 8002be4:	00db      	lsls	r3, r3, #3
 8002be6:	3332      	adds	r3, #50	; 0x32
 8002be8:	4a65      	ldr	r2, [pc, #404]	; (8002d80 <UART_SetConfig+0x384>)
 8002bea:	fba2 2303 	umull	r2, r3, r2, r3
 8002bee:	095b      	lsrs	r3, r3, #5
 8002bf0:	f003 0207 	and.w	r2, r3, #7
 8002bf4:	687b      	ldr	r3, [r7, #4]
 8002bf6:	681b      	ldr	r3, [r3, #0]
 8002bf8:	4442      	add	r2, r8
 8002bfa:	609a      	str	r2, [r3, #8]
 8002bfc:	e26f      	b.n	80030de <UART_SetConfig+0x6e2>
      huart->Instance->BRR = UART_BRR_SAMPLING8(pclk, huart->Init.BaudRate);
    }
#endif /* USART6 */
    else
    {
      pclk = HAL_RCC_GetPCLK1Freq();
 8002bfe:	f7ff fd97 	bl	8002730 <HAL_RCC_GetPCLK1Freq>
 8002c02:	60b8      	str	r0, [r7, #8]
      huart->Instance->BRR = UART_BRR_SAMPLING8(pclk, huart->Init.BaudRate);
 8002c04:	68bb      	ldr	r3, [r7, #8]
 8002c06:	461d      	mov	r5, r3
 8002c08:	f04f 0600 	mov.w	r6, #0
 8002c0c:	46a8      	mov	r8, r5
 8002c0e:	46b1      	mov	r9, r6
 8002c10:	eb18 0308 	adds.w	r3, r8, r8
 8002c14:	eb49 0409 	adc.w	r4, r9, r9
 8002c18:	4698      	mov	r8, r3
 8002c1a:	46a1      	mov	r9, r4
 8002c1c:	eb18 0805 	adds.w	r8, r8, r5
 8002c20:	eb49 0906 	adc.w	r9, r9, r6
 8002c24:	f04f 0100 	mov.w	r1, #0
 8002c28:	f04f 0200 	mov.w	r2, #0
 8002c2c:	ea4f 02c9 	mov.w	r2, r9, lsl #3
 8002c30:	ea42 7258 	orr.w	r2, r2, r8, lsr #29
 8002c34:	ea4f 01c8 	mov.w	r1, r8, lsl #3
 8002c38:	4688      	mov	r8, r1
 8002c3a:	4691      	mov	r9, r2
 8002c3c:	eb18 0005 	adds.w	r0, r8, r5
 8002c40:	eb49 0106 	adc.w	r1, r9, r6
 8002c44:	687b      	ldr	r3, [r7, #4]
 8002c46:	685b      	ldr	r3, [r3, #4]
 8002c48:	461d      	mov	r5, r3
 8002c4a:	f04f 0600 	mov.w	r6, #0
 8002c4e:	196b      	adds	r3, r5, r5
 8002c50:	eb46 0406 	adc.w	r4, r6, r6
 8002c54:	461a      	mov	r2, r3
 8002c56:	4623      	mov	r3, r4
 8002c58:	f7fd ff5a 	bl	8000b10 <__aeabi_uldivmod>
 8002c5c:	4603      	mov	r3, r0
 8002c5e:	460c      	mov	r4, r1
 8002c60:	461a      	mov	r2, r3
 8002c62:	4b47      	ldr	r3, [pc, #284]	; (8002d80 <UART_SetConfig+0x384>)
 8002c64:	fba3 2302 	umull	r2, r3, r3, r2
 8002c68:	095b      	lsrs	r3, r3, #5
 8002c6a:	ea4f 1803 	mov.w	r8, r3, lsl #4
 8002c6e:	68bb      	ldr	r3, [r7, #8]
 8002c70:	461d      	mov	r5, r3
 8002c72:	f04f 0600 	mov.w	r6, #0
 8002c76:	46a9      	mov	r9, r5
 8002c78:	46b2      	mov	sl, r6
 8002c7a:	eb19 0309 	adds.w	r3, r9, r9
 8002c7e:	eb4a 040a 	adc.w	r4, sl, sl
 8002c82:	4699      	mov	r9, r3
 8002c84:	46a2      	mov	sl, r4
 8002c86:	eb19 0905 	adds.w	r9, r9, r5
 8002c8a:	eb4a 0a06 	adc.w	sl, sl, r6
 8002c8e:	f04f 0100 	mov.w	r1, #0
 8002c92:	f04f 0200 	mov.w	r2, #0
 8002c96:	ea4f 02ca 	mov.w	r2, sl, lsl #3
 8002c9a:	ea42 7259 	orr.w	r2, r2, r9, lsr #29
 8002c9e:	ea4f 01c9 	mov.w	r1, r9, lsl #3
 8002ca2:	4689      	mov	r9, r1
 8002ca4:	4692      	mov	sl, r2
 8002ca6:	eb19 0005 	adds.w	r0, r9, r5
 8002caa:	eb4a 0106 	adc.w	r1, sl, r6
 8002cae:	687b      	ldr	r3, [r7, #4]
 8002cb0:	685b      	ldr	r3, [r3, #4]
 8002cb2:	461d      	mov	r5, r3
 8002cb4:	f04f 0600 	mov.w	r6, #0
 8002cb8:	196b      	adds	r3, r5, r5
 8002cba:	eb46 0406 	adc.w	r4, r6, r6
 8002cbe:	461a      	mov	r2, r3
 8002cc0:	4623      	mov	r3, r4
 8002cc2:	f7fd ff25 	bl	8000b10 <__aeabi_uldivmod>
 8002cc6:	4603      	mov	r3, r0
 8002cc8:	460c      	mov	r4, r1
 8002cca:	461a      	mov	r2, r3
 8002ccc:	4b2c      	ldr	r3, [pc, #176]	; (8002d80 <UART_SetConfig+0x384>)
 8002cce:	fba3 1302 	umull	r1, r3, r3, r2
 8002cd2:	095b      	lsrs	r3, r3, #5
 8002cd4:	2164      	movs	r1, #100	; 0x64
 8002cd6:	fb01 f303 	mul.w	r3, r1, r3
 8002cda:	1ad3      	subs	r3, r2, r3
 8002cdc:	00db      	lsls	r3, r3, #3
 8002cde:	3332      	adds	r3, #50	; 0x32
 8002ce0:	4a27      	ldr	r2, [pc, #156]	; (8002d80 <UART_SetConfig+0x384>)
 8002ce2:	fba2 2303 	umull	r2, r3, r2, r3
 8002ce6:	095b      	lsrs	r3, r3, #5
 8002ce8:	005b      	lsls	r3, r3, #1
 8002cea:	f403 73f8 	and.w	r3, r3, #496	; 0x1f0
 8002cee:	4498      	add	r8, r3
 8002cf0:	68bb      	ldr	r3, [r7, #8]
 8002cf2:	461d      	mov	r5, r3
 8002cf4:	f04f 0600 	mov.w	r6, #0
 8002cf8:	46a9      	mov	r9, r5
 8002cfa:	46b2      	mov	sl, r6
 8002cfc:	eb19 0309 	adds.w	r3, r9, r9
 8002d00:	eb4a 040a 	adc.w	r4, sl, sl
 8002d04:	4699      	mov	r9, r3
 8002d06:	46a2      	mov	sl, r4
 8002d08:	eb19 0905 	adds.w	r9, r9, r5
 8002d0c:	eb4a 0a06 	adc.w	sl, sl, r6
 8002d10:	f04f 0100 	mov.w	r1, #0
 8002d14:	f04f 0200 	mov.w	r2, #0
 8002d18:	ea4f 02ca 	mov.w	r2, sl, lsl #3
 8002d1c:	ea42 7259 	orr.w	r2, r2, r9, lsr #29
 8002d20:	ea4f 01c9 	mov.w	r1, r9, lsl #3
 8002d24:	4689      	mov	r9, r1
 8002d26:	4692      	mov	sl, r2
 8002d28:	eb19 0005 	adds.w	r0, r9, r5
 8002d2c:	eb4a 0106 	adc.w	r1, sl, r6
 8002d30:	687b      	ldr	r3, [r7, #4]
 8002d32:	685b      	ldr	r3, [r3, #4]
 8002d34:	461d      	mov	r5, r3
 8002d36:	f04f 0600 	mov.w	r6, #0
 8002d3a:	196b      	adds	r3, r5, r5
 8002d3c:	eb46 0406 	adc.w	r4, r6, r6
 8002d40:	461a      	mov	r2, r3
 8002d42:	4623      	mov	r3, r4
 8002d44:	f7fd fee4 	bl	8000b10 <__aeabi_uldivmod>
 8002d48:	4603      	mov	r3, r0
 8002d4a:	460c      	mov	r4, r1
 8002d4c:	461a      	mov	r2, r3
 8002d4e:	4b0c      	ldr	r3, [pc, #48]	; (8002d80 <UART_SetConfig+0x384>)
 8002d50:	fba3 1302 	umull	r1, r3, r3, r2
 8002d54:	095b      	lsrs	r3, r3, #5
 8002d56:	2164      	movs	r1, #100	; 0x64
 8002d58:	fb01 f303 	mul.w	r3, r1, r3
 8002d5c:	1ad3      	subs	r3, r2, r3
 8002d5e:	00db      	lsls	r3, r3, #3
 8002d60:	3332      	adds	r3, #50	; 0x32
 8002d62:	4a07      	ldr	r2, [pc, #28]	; (8002d80 <UART_SetConfig+0x384>)
 8002d64:	fba2 2303 	umull	r2, r3, r2, r3
 8002d68:	095b      	lsrs	r3, r3, #5
 8002d6a:	f003 0207 	and.w	r2, r3, #7
 8002d6e:	687b      	ldr	r3, [r7, #4]
 8002d70:	681b      	ldr	r3, [r3, #0]
 8002d72:	4442      	add	r2, r8
 8002d74:	609a      	str	r2, [r3, #8]
    {
      pclk = HAL_RCC_GetPCLK1Freq();
      huart->Instance->BRR = UART_BRR_SAMPLING16(pclk, huart->Init.BaudRate);
    }
  }
}
 8002d76:	e1b2      	b.n	80030de <UART_SetConfig+0x6e2>
 8002d78:	40011000 	.word	0x40011000
 8002d7c:	40011400 	.word	0x40011400
 8002d80:	51eb851f 	.word	0x51eb851f
    if ((huart->Instance == USART1) || (huart->Instance == USART6))
 8002d84:	687b      	ldr	r3, [r7, #4]
 8002d86:	681b      	ldr	r3, [r3, #0]
 8002d88:	4ad7      	ldr	r2, [pc, #860]	; (80030e8 <UART_SetConfig+0x6ec>)
 8002d8a:	4293      	cmp	r3, r2
 8002d8c:	d005      	beq.n	8002d9a <UART_SetConfig+0x39e>
 8002d8e:	687b      	ldr	r3, [r7, #4]
 8002d90:	681b      	ldr	r3, [r3, #0]
 8002d92:	4ad6      	ldr	r2, [pc, #856]	; (80030ec <UART_SetConfig+0x6f0>)
 8002d94:	4293      	cmp	r3, r2
 8002d96:	f040 80d1 	bne.w	8002f3c <UART_SetConfig+0x540>
      pclk = HAL_RCC_GetPCLK2Freq();
 8002d9a:	f7ff fcdd 	bl	8002758 <HAL_RCC_GetPCLK2Freq>
 8002d9e:	60b8      	str	r0, [r7, #8]
      huart->Instance->BRR = UART_BRR_SAMPLING16(pclk, huart->Init.BaudRate);
 8002da0:	68bb      	ldr	r3, [r7, #8]
 8002da2:	469a      	mov	sl, r3
 8002da4:	f04f 0b00 	mov.w	fp, #0
 8002da8:	46d0      	mov	r8, sl
 8002daa:	46d9      	mov	r9, fp
 8002dac:	eb18 0308 	adds.w	r3, r8, r8
 8002db0:	eb49 0409 	adc.w	r4, r9, r9
 8002db4:	4698      	mov	r8, r3
 8002db6:	46a1      	mov	r9, r4
 8002db8:	eb18 080a 	adds.w	r8, r8, sl
 8002dbc:	eb49 090b 	adc.w	r9, r9, fp
 8002dc0:	f04f 0100 	mov.w	r1, #0
 8002dc4:	f04f 0200 	mov.w	r2, #0
 8002dc8:	ea4f 02c9 	mov.w	r2, r9, lsl #3
 8002dcc:	ea42 7258 	orr.w	r2, r2, r8, lsr #29
 8002dd0:	ea4f 01c8 	mov.w	r1, r8, lsl #3
 8002dd4:	4688      	mov	r8, r1
 8002dd6:	4691      	mov	r9, r2
 8002dd8:	eb1a 0508 	adds.w	r5, sl, r8
 8002ddc:	eb4b 0609 	adc.w	r6, fp, r9
 8002de0:	687b      	ldr	r3, [r7, #4]
 8002de2:	685b      	ldr	r3, [r3, #4]
 8002de4:	4619      	mov	r1, r3
 8002de6:	f04f 0200 	mov.w	r2, #0
 8002dea:	f04f 0300 	mov.w	r3, #0
 8002dee:	f04f 0400 	mov.w	r4, #0
 8002df2:	0094      	lsls	r4, r2, #2
 8002df4:	ea44 7491 	orr.w	r4, r4, r1, lsr #30
 8002df8:	008b      	lsls	r3, r1, #2
 8002dfa:	461a      	mov	r2, r3
 8002dfc:	4623      	mov	r3, r4
 8002dfe:	4628      	mov	r0, r5
 8002e00:	4631      	mov	r1, r6
 8002e02:	f7fd fe85 	bl	8000b10 <__aeabi_uldivmod>
 8002e06:	4603      	mov	r3, r0
 8002e08:	460c      	mov	r4, r1
 8002e0a:	461a      	mov	r2, r3
 8002e0c:	4bb8      	ldr	r3, [pc, #736]	; (80030f0 <UART_SetConfig+0x6f4>)
 8002e0e:	fba3 2302 	umull	r2, r3, r3, r2
 8002e12:	095b      	lsrs	r3, r3, #5
 8002e14:	ea4f 1803 	mov.w	r8, r3, lsl #4
 8002e18:	68bb      	ldr	r3, [r7, #8]
 8002e1a:	469b      	mov	fp, r3
 8002e1c:	f04f 0c00 	mov.w	ip, #0
 8002e20:	46d9      	mov	r9, fp
 8002e22:	46e2      	mov	sl, ip
 8002e24:	eb19 0309 	adds.w	r3, r9, r9
 8002e28:	eb4a 040a 	adc.w	r4, sl, sl
 8002e2c:	4699      	mov	r9, r3
 8002e2e:	46a2      	mov	sl, r4
 8002e30:	eb19 090b 	adds.w	r9, r9, fp
 8002e34:	eb4a 0a0c 	adc.w	sl, sl, ip
 8002e38:	f04f 0100 	mov.w	r1, #0
 8002e3c:	f04f 0200 	mov.w	r2, #0
 8002e40:	ea4f 02ca 	mov.w	r2, sl, lsl #3
 8002e44:	ea42 7259 	orr.w	r2, r2, r9, lsr #29
 8002e48:	ea4f 01c9 	mov.w	r1, r9, lsl #3
 8002e4c:	4689      	mov	r9, r1
 8002e4e:	4692      	mov	sl, r2
 8002e50:	eb1b 0509 	adds.w	r5, fp, r9
 8002e54:	eb4c 060a 	adc.w	r6, ip, sl
 8002e58:	687b      	ldr	r3, [r7, #4]
 8002e5a:	685b      	ldr	r3, [r3, #4]
 8002e5c:	4619      	mov	r1, r3
 8002e5e:	f04f 0200 	mov.w	r2, #0
 8002e62:	f04f 0300 	mov.w	r3, #0
 8002e66:	f04f 0400 	mov.w	r4, #0
 8002e6a:	0094      	lsls	r4, r2, #2
 8002e6c:	ea44 7491 	orr.w	r4, r4, r1, lsr #30
 8002e70:	008b      	lsls	r3, r1, #2
 8002e72:	461a      	mov	r2, r3
 8002e74:	4623      	mov	r3, r4
 8002e76:	4628      	mov	r0, r5
 8002e78:	4631      	mov	r1, r6
 8002e7a:	f7fd fe49 	bl	8000b10 <__aeabi_uldivmod>
 8002e7e:	4603      	mov	r3, r0
 8002e80:	460c      	mov	r4, r1
 8002e82:	461a      	mov	r2, r3
 8002e84:	4b9a      	ldr	r3, [pc, #616]	; (80030f0 <UART_SetConfig+0x6f4>)
 8002e86:	fba3 1302 	umull	r1, r3, r3, r2
 8002e8a:	095b      	lsrs	r3, r3, #5
 8002e8c:	2164      	movs	r1, #100	; 0x64
 8002e8e:	fb01 f303 	mul.w	r3, r1, r3
 8002e92:	1ad3      	subs	r3, r2, r3
 8002e94:	011b      	lsls	r3, r3, #4
 8002e96:	3332      	adds	r3, #50	; 0x32
 8002e98:	4a95      	ldr	r2, [pc, #596]	; (80030f0 <UART_SetConfig+0x6f4>)
 8002e9a:	fba2 2303 	umull	r2, r3, r2, r3
 8002e9e:	095b      	lsrs	r3, r3, #5
 8002ea0:	f003 03f0 	and.w	r3, r3, #240	; 0xf0
 8002ea4:	4498      	add	r8, r3
 8002ea6:	68bb      	ldr	r3, [r7, #8]
 8002ea8:	469b      	mov	fp, r3
 8002eaa:	f04f 0c00 	mov.w	ip, #0
 8002eae:	46d9      	mov	r9, fp
 8002eb0:	46e2      	mov	sl, ip
 8002eb2:	eb19 0309 	adds.w	r3, r9, r9
 8002eb6:	eb4a 040a 	adc.w	r4, sl, sl
 8002eba:	4699      	mov	r9, r3
 8002ebc:	46a2      	mov	sl, r4
 8002ebe:	eb19 090b 	adds.w	r9, r9, fp
 8002ec2:	eb4a 0a0c 	adc.w	sl, sl, ip
 8002ec6:	f04f 0100 	mov.w	r1, #0
 8002eca:	f04f 0200 	mov.w	r2, #0
 8002ece:	ea4f 02ca 	mov.w	r2, sl, lsl #3
 8002ed2:	ea42 7259 	orr.w	r2, r2, r9, lsr #29
 8002ed6:	ea4f 01c9 	mov.w	r1, r9, lsl #3
 8002eda:	4689      	mov	r9, r1
 8002edc:	4692      	mov	sl, r2
 8002ede:	eb1b 0509 	adds.w	r5, fp, r9
 8002ee2:	eb4c 060a 	adc.w	r6, ip, sl
 8002ee6:	687b      	ldr	r3, [r7, #4]
 8002ee8:	685b      	ldr	r3, [r3, #4]
 8002eea:	4619      	mov	r1, r3
 8002eec:	f04f 0200 	mov.w	r2, #0
 8002ef0:	f04f 0300 	mov.w	r3, #0
 8002ef4:	f04f 0400 	mov.w	r4, #0
 8002ef8:	0094      	lsls	r4, r2, #2
 8002efa:	ea44 7491 	orr.w	r4, r4, r1, lsr #30
 8002efe:	008b      	lsls	r3, r1, #2
 8002f00:	461a      	mov	r2, r3
 8002f02:	4623      	mov	r3, r4
 8002f04:	4628      	mov	r0, r5
 8002f06:	4631      	mov	r1, r6
 8002f08:	f7fd fe02 	bl	8000b10 <__aeabi_uldivmod>
 8002f0c:	4603      	mov	r3, r0
 8002f0e:	460c      	mov	r4, r1
 8002f10:	461a      	mov	r2, r3
 8002f12:	4b77      	ldr	r3, [pc, #476]	; (80030f0 <UART_SetConfig+0x6f4>)
 8002f14:	fba3 1302 	umull	r1, r3, r3, r2
 8002f18:	095b      	lsrs	r3, r3, #5
 8002f1a:	2164      	movs	r1, #100	; 0x64
 8002f1c:	fb01 f303 	mul.w	r3, r1, r3
 8002f20:	1ad3      	subs	r3, r2, r3
 8002f22:	011b      	lsls	r3, r3, #4
 8002f24:	3332      	adds	r3, #50	; 0x32
 8002f26:	4a72      	ldr	r2, [pc, #456]	; (80030f0 <UART_SetConfig+0x6f4>)
 8002f28:	fba2 2303 	umull	r2, r3, r2, r3
 8002f2c:	095b      	lsrs	r3, r3, #5
 8002f2e:	f003 020f 	and.w	r2, r3, #15
 8002f32:	687b      	ldr	r3, [r7, #4]
 8002f34:	681b      	ldr	r3, [r3, #0]
 8002f36:	4442      	add	r2, r8
 8002f38:	609a      	str	r2, [r3, #8]
 8002f3a:	e0d0      	b.n	80030de <UART_SetConfig+0x6e2>
      pclk = HAL_RCC_GetPCLK1Freq();
 8002f3c:	f7ff fbf8 	bl	8002730 <HAL_RCC_GetPCLK1Freq>
 8002f40:	60b8      	str	r0, [r7, #8]
      huart->Instance->BRR = UART_BRR_SAMPLING16(pclk, huart->Init.BaudRate);
 8002f42:	68bb      	ldr	r3, [r7, #8]
 8002f44:	469a      	mov	sl, r3
 8002f46:	f04f 0b00 	mov.w	fp, #0
 8002f4a:	46d0      	mov	r8, sl
 8002f4c:	46d9      	mov	r9, fp
 8002f4e:	eb18 0308 	adds.w	r3, r8, r8
 8002f52:	eb49 0409 	adc.w	r4, r9, r9
 8002f56:	4698      	mov	r8, r3
 8002f58:	46a1      	mov	r9, r4
 8002f5a:	eb18 080a 	adds.w	r8, r8, sl
 8002f5e:	eb49 090b 	adc.w	r9, r9, fp
 8002f62:	f04f 0100 	mov.w	r1, #0
 8002f66:	f04f 0200 	mov.w	r2, #0
 8002f6a:	ea4f 02c9 	mov.w	r2, r9, lsl #3
 8002f6e:	ea42 7258 	orr.w	r2, r2, r8, lsr #29
 8002f72:	ea4f 01c8 	mov.w	r1, r8, lsl #3
 8002f76:	4688      	mov	r8, r1
 8002f78:	4691      	mov	r9, r2
 8002f7a:	eb1a 0508 	adds.w	r5, sl, r8
 8002f7e:	eb4b 0609 	adc.w	r6, fp, r9
 8002f82:	687b      	ldr	r3, [r7, #4]
 8002f84:	685b      	ldr	r3, [r3, #4]
 8002f86:	4619      	mov	r1, r3
 8002f88:	f04f 0200 	mov.w	r2, #0
 8002f8c:	f04f 0300 	mov.w	r3, #0
 8002f90:	f04f 0400 	mov.w	r4, #0
 8002f94:	0094      	lsls	r4, r2, #2
 8002f96:	ea44 7491 	orr.w	r4, r4, r1, lsr #30
 8002f9a:	008b      	lsls	r3, r1, #2
 8002f9c:	461a      	mov	r2, r3
 8002f9e:	4623      	mov	r3, r4
 8002fa0:	4628      	mov	r0, r5
 8002fa2:	4631      	mov	r1, r6
 8002fa4:	f7fd fdb4 	bl	8000b10 <__aeabi_uldivmod>
 8002fa8:	4603      	mov	r3, r0
 8002faa:	460c      	mov	r4, r1
 8002fac:	461a      	mov	r2, r3
 8002fae:	4b50      	ldr	r3, [pc, #320]	; (80030f0 <UART_SetConfig+0x6f4>)
 8002fb0:	fba3 2302 	umull	r2, r3, r3, r2
 8002fb4:	095b      	lsrs	r3, r3, #5
 8002fb6:	ea4f 1803 	mov.w	r8, r3, lsl #4
 8002fba:	68bb      	ldr	r3, [r7, #8]
 8002fbc:	469b      	mov	fp, r3
 8002fbe:	f04f 0c00 	mov.w	ip, #0
 8002fc2:	46d9      	mov	r9, fp
 8002fc4:	46e2      	mov	sl, ip
 8002fc6:	eb19 0309 	adds.w	r3, r9, r9
 8002fca:	eb4a 040a 	adc.w	r4, sl, sl
 8002fce:	4699      	mov	r9, r3
 8002fd0:	46a2      	mov	sl, r4
 8002fd2:	eb19 090b 	adds.w	r9, r9, fp
 8002fd6:	eb4a 0a0c 	adc.w	sl, sl, ip
 8002fda:	f04f 0100 	mov.w	r1, #0
 8002fde:	f04f 0200 	mov.w	r2, #0
 8002fe2:	ea4f 02ca 	mov.w	r2, sl, lsl #3
 8002fe6:	ea42 7259 	orr.w	r2, r2, r9, lsr #29
 8002fea:	ea4f 01c9 	mov.w	r1, r9, lsl #3
 8002fee:	4689      	mov	r9, r1
 8002ff0:	4692      	mov	sl, r2
 8002ff2:	eb1b 0509 	adds.w	r5, fp, r9
 8002ff6:	eb4c 060a 	adc.w	r6, ip, sl
 8002ffa:	687b      	ldr	r3, [r7, #4]
 8002ffc:	685b      	ldr	r3, [r3, #4]
 8002ffe:	4619      	mov	r1, r3
 8003000:	f04f 0200 	mov.w	r2, #0
 8003004:	f04f 0300 	mov.w	r3, #0
 8003008:	f04f 0400 	mov.w	r4, #0
 800300c:	0094      	lsls	r4, r2, #2
 800300e:	ea44 7491 	orr.w	r4, r4, r1, lsr #30
 8003012:	008b      	lsls	r3, r1, #2
 8003014:	461a      	mov	r2, r3
 8003016:	4623      	mov	r3, r4
 8003018:	4628      	mov	r0, r5
 800301a:	4631      	mov	r1, r6
 800301c:	f7fd fd78 	bl	8000b10 <__aeabi_uldivmod>
 8003020:	4603      	mov	r3, r0
 8003022:	460c      	mov	r4, r1
 8003024:	461a      	mov	r2, r3
 8003026:	4b32      	ldr	r3, [pc, #200]	; (80030f0 <UART_SetConfig+0x6f4>)
 8003028:	fba3 1302 	umull	r1, r3, r3, r2
 800302c:	095b      	lsrs	r3, r3, #5
 800302e:	2164      	movs	r1, #100	; 0x64
 8003030:	fb01 f303 	mul.w	r3, r1, r3
 8003034:	1ad3      	subs	r3, r2, r3
 8003036:	011b      	lsls	r3, r3, #4
 8003038:	3332      	adds	r3, #50	; 0x32
 800303a:	4a2d      	ldr	r2, [pc, #180]	; (80030f0 <UART_SetConfig+0x6f4>)
 800303c:	fba2 2303 	umull	r2, r3, r2, r3
 8003040:	095b      	lsrs	r3, r3, #5
 8003042:	f003 03f0 	and.w	r3, r3, #240	; 0xf0
 8003046:	4498      	add	r8, r3
 8003048:	68bb      	ldr	r3, [r7, #8]
 800304a:	469b      	mov	fp, r3
 800304c:	f04f 0c00 	mov.w	ip, #0
 8003050:	46d9      	mov	r9, fp
 8003052:	46e2      	mov	sl, ip
 8003054:	eb19 0309 	adds.w	r3, r9, r9
 8003058:	eb4a 040a 	adc.w	r4, sl, sl
 800305c:	4699      	mov	r9, r3
 800305e:	46a2      	mov	sl, r4
 8003060:	eb19 090b 	adds.w	r9, r9, fp
 8003064:	eb4a 0a0c 	adc.w	sl, sl, ip
 8003068:	f04f 0100 	mov.w	r1, #0
 800306c:	f04f 0200 	mov.w	r2, #0
 8003070:	ea4f 02ca 	mov.w	r2, sl, lsl #3
 8003074:	ea42 7259 	orr.w	r2, r2, r9, lsr #29
 8003078:	ea4f 01c9 	mov.w	r1, r9, lsl #3
 800307c:	4689      	mov	r9, r1
 800307e:	4692      	mov	sl, r2
 8003080:	eb1b 0509 	adds.w	r5, fp, r9
 8003084:	eb4c 060a 	adc.w	r6, ip, sl
 8003088:	687b      	ldr	r3, [r7, #4]
 800308a:	685b      	ldr	r3, [r3, #4]
 800308c:	4619      	mov	r1, r3
 800308e:	f04f 0200 	mov.w	r2, #0
 8003092:	f04f 0300 	mov.w	r3, #0
 8003096:	f04f 0400 	mov.w	r4, #0
 800309a:	0094      	lsls	r4, r2, #2
 800309c:	ea44 7491 	orr.w	r4, r4, r1, lsr #30
 80030a0:	008b      	lsls	r3, r1, #2
 80030a2:	461a      	mov	r2, r3
 80030a4:	4623      	mov	r3, r4
 80030a6:	4628      	mov	r0, r5
 80030a8:	4631      	mov	r1, r6
 80030aa:	f7fd fd31 	bl	8000b10 <__aeabi_uldivmod>
 80030ae:	4603      	mov	r3, r0
 80030b0:	460c      	mov	r4, r1
 80030b2:	461a      	mov	r2, r3
 80030b4:	4b0e      	ldr	r3, [pc, #56]	; (80030f0 <UART_SetConfig+0x6f4>)
 80030b6:	fba3 1302 	umull	r1, r3, r3, r2
 80030ba:	095b      	lsrs	r3, r3, #5
 80030bc:	2164      	movs	r1, #100	; 0x64
 80030be:	fb01 f303 	mul.w	r3, r1, r3
 80030c2:	1ad3      	subs	r3, r2, r3
 80030c4:	011b      	lsls	r3, r3, #4
 80030c6:	3332      	adds	r3, #50	; 0x32
 80030c8:	4a09      	ldr	r2, [pc, #36]	; (80030f0 <UART_SetConfig+0x6f4>)
 80030ca:	fba2 2303 	umull	r2, r3, r2, r3
 80030ce:	095b      	lsrs	r3, r3, #5
 80030d0:	f003 020f 	and.w	r2, r3, #15
 80030d4:	687b      	ldr	r3, [r7, #4]
 80030d6:	681b      	ldr	r3, [r3, #0]
 80030d8:	4442      	add	r2, r8
 80030da:	609a      	str	r2, [r3, #8]
}
 80030dc:	e7ff      	b.n	80030de <UART_SetConfig+0x6e2>
 80030de:	bf00      	nop
 80030e0:	3714      	adds	r7, #20
 80030e2:	46bd      	mov	sp, r7
 80030e4:	e8bd 8ff0 	ldmia.w	sp!, {r4, r5, r6, r7, r8, r9, sl, fp, pc}
 80030e8:	40011000 	.word	0x40011000
 80030ec:	40011400 	.word	0x40011400
 80030f0:	51eb851f 	.word	0x51eb851f

080030f4 <__errno>:
 80030f4:	4b01      	ldr	r3, [pc, #4]	; (80030fc <__errno+0x8>)
 80030f6:	6818      	ldr	r0, [r3, #0]
 80030f8:	4770      	bx	lr
 80030fa:	bf00      	nop
 80030fc:	2000000c 	.word	0x2000000c

08003100 <__libc_init_array>:
 8003100:	b570      	push	{r4, r5, r6, lr}
 8003102:	4e0d      	ldr	r6, [pc, #52]	; (8003138 <__libc_init_array+0x38>)
 8003104:	4c0d      	ldr	r4, [pc, #52]	; (800313c <__libc_init_array+0x3c>)
 8003106:	1ba4      	subs	r4, r4, r6
 8003108:	10a4      	asrs	r4, r4, #2
 800310a:	2500      	movs	r5, #0
 800310c:	42a5      	cmp	r5, r4
 800310e:	d109      	bne.n	8003124 <__libc_init_array+0x24>
 8003110:	4e0b      	ldr	r6, [pc, #44]	; (8003140 <__libc_init_array+0x40>)
 8003112:	4c0c      	ldr	r4, [pc, #48]	; (8003144 <__libc_init_array+0x44>)
 8003114:	f001 fd46 	bl	8004ba4 <_init>
 8003118:	1ba4      	subs	r4, r4, r6
 800311a:	10a4      	asrs	r4, r4, #2
 800311c:	2500      	movs	r5, #0
 800311e:	42a5      	cmp	r5, r4
 8003120:	d105      	bne.n	800312e <__libc_init_array+0x2e>
 8003122:	bd70      	pop	{r4, r5, r6, pc}
 8003124:	f856 3025 	ldr.w	r3, [r6, r5, lsl #2]
 8003128:	4798      	blx	r3
 800312a:	3501      	adds	r5, #1
 800312c:	e7ee      	b.n	800310c <__libc_init_array+0xc>
 800312e:	f856 3025 	ldr.w	r3, [r6, r5, lsl #2]
 8003132:	4798      	blx	r3
 8003134:	3501      	adds	r5, #1
 8003136:	e7f2      	b.n	800311e <__libc_init_array+0x1e>
 8003138:	08004e08 	.word	0x08004e08
 800313c:	08004e08 	.word	0x08004e08
 8003140:	08004e08 	.word	0x08004e08
 8003144:	08004e0c 	.word	0x08004e0c

08003148 <memset>:
 8003148:	4402      	add	r2, r0
 800314a:	4603      	mov	r3, r0
 800314c:	4293      	cmp	r3, r2
 800314e:	d100      	bne.n	8003152 <memset+0xa>
 8003150:	4770      	bx	lr
 8003152:	f803 1b01 	strb.w	r1, [r3], #1
 8003156:	e7f9      	b.n	800314c <memset+0x4>

08003158 <__cvt>:
 8003158:	e92d 47ff 	stmdb	sp!, {r0, r1, r2, r3, r4, r5, r6, r7, r8, r9, sl, lr}
 800315c:	ec55 4b10 	vmov	r4, r5, d0
 8003160:	9f0d      	ldr	r7, [sp, #52]	; 0x34
 8003162:	f8dd a030 	ldr.w	sl, [sp, #48]	; 0x30
 8003166:	2d00      	cmp	r5, #0
 8003168:	460e      	mov	r6, r1
 800316a:	4691      	mov	r9, r2
 800316c:	4619      	mov	r1, r3
 800316e:	bfb8      	it	lt
 8003170:	4622      	movlt	r2, r4
 8003172:	462b      	mov	r3, r5
 8003174:	f027 0720 	bic.w	r7, r7, #32
 8003178:	bfbb      	ittet	lt
 800317a:	f105 4300 	addlt.w	r3, r5, #2147483648	; 0x80000000
 800317e:	461d      	movlt	r5, r3
 8003180:	2300      	movge	r3, #0
 8003182:	232d      	movlt	r3, #45	; 0x2d
 8003184:	bfb8      	it	lt
 8003186:	4614      	movlt	r4, r2
 8003188:	2f46      	cmp	r7, #70	; 0x46
 800318a:	700b      	strb	r3, [r1, #0]
 800318c:	d004      	beq.n	8003198 <__cvt+0x40>
 800318e:	2f45      	cmp	r7, #69	; 0x45
 8003190:	d100      	bne.n	8003194 <__cvt+0x3c>
 8003192:	3601      	adds	r6, #1
 8003194:	2102      	movs	r1, #2
 8003196:	e000      	b.n	800319a <__cvt+0x42>
 8003198:	2103      	movs	r1, #3
 800319a:	ab03      	add	r3, sp, #12
 800319c:	9301      	str	r3, [sp, #4]
 800319e:	ab02      	add	r3, sp, #8
 80031a0:	9300      	str	r3, [sp, #0]
 80031a2:	4632      	mov	r2, r6
 80031a4:	4653      	mov	r3, sl
 80031a6:	ec45 4b10 	vmov	d0, r4, r5
 80031aa:	f000 fbad 	bl	8003908 <_dtoa_r>
 80031ae:	2f47      	cmp	r7, #71	; 0x47
 80031b0:	4680      	mov	r8, r0
 80031b2:	d102      	bne.n	80031ba <__cvt+0x62>
 80031b4:	f019 0f01 	tst.w	r9, #1
 80031b8:	d026      	beq.n	8003208 <__cvt+0xb0>
 80031ba:	2f46      	cmp	r7, #70	; 0x46
 80031bc:	eb08 0906 	add.w	r9, r8, r6
 80031c0:	d111      	bne.n	80031e6 <__cvt+0x8e>
 80031c2:	f898 3000 	ldrb.w	r3, [r8]
 80031c6:	2b30      	cmp	r3, #48	; 0x30
 80031c8:	d10a      	bne.n	80031e0 <__cvt+0x88>
 80031ca:	2200      	movs	r2, #0
 80031cc:	2300      	movs	r3, #0
 80031ce:	4620      	mov	r0, r4
 80031d0:	4629      	mov	r1, r5
 80031d2:	f7fd fc2d 	bl	8000a30 <__aeabi_dcmpeq>
 80031d6:	b918      	cbnz	r0, 80031e0 <__cvt+0x88>
 80031d8:	f1c6 0601 	rsb	r6, r6, #1
 80031dc:	f8ca 6000 	str.w	r6, [sl]
 80031e0:	f8da 3000 	ldr.w	r3, [sl]
 80031e4:	4499      	add	r9, r3
 80031e6:	2200      	movs	r2, #0
 80031e8:	2300      	movs	r3, #0
 80031ea:	4620      	mov	r0, r4
 80031ec:	4629      	mov	r1, r5
 80031ee:	f7fd fc1f 	bl	8000a30 <__aeabi_dcmpeq>
 80031f2:	b938      	cbnz	r0, 8003204 <__cvt+0xac>
 80031f4:	2230      	movs	r2, #48	; 0x30
 80031f6:	9b03      	ldr	r3, [sp, #12]
 80031f8:	454b      	cmp	r3, r9
 80031fa:	d205      	bcs.n	8003208 <__cvt+0xb0>
 80031fc:	1c59      	adds	r1, r3, #1
 80031fe:	9103      	str	r1, [sp, #12]
 8003200:	701a      	strb	r2, [r3, #0]
 8003202:	e7f8      	b.n	80031f6 <__cvt+0x9e>
 8003204:	f8cd 900c 	str.w	r9, [sp, #12]
 8003208:	9b03      	ldr	r3, [sp, #12]
 800320a:	9a0e      	ldr	r2, [sp, #56]	; 0x38
 800320c:	eba3 0308 	sub.w	r3, r3, r8
 8003210:	4640      	mov	r0, r8
 8003212:	6013      	str	r3, [r2, #0]
 8003214:	b004      	add	sp, #16
 8003216:	e8bd 87f0 	ldmia.w	sp!, {r4, r5, r6, r7, r8, r9, sl, pc}

0800321a <__exponent>:
 800321a:	b5f7      	push	{r0, r1, r2, r4, r5, r6, r7, lr}
 800321c:	2900      	cmp	r1, #0
 800321e:	4604      	mov	r4, r0
 8003220:	bfba      	itte	lt
 8003222:	4249      	neglt	r1, r1
 8003224:	232d      	movlt	r3, #45	; 0x2d
 8003226:	232b      	movge	r3, #43	; 0x2b
 8003228:	2909      	cmp	r1, #9
 800322a:	f804 2b02 	strb.w	r2, [r4], #2
 800322e:	7043      	strb	r3, [r0, #1]
 8003230:	dd20      	ble.n	8003274 <__exponent+0x5a>
 8003232:	f10d 0307 	add.w	r3, sp, #7
 8003236:	461f      	mov	r7, r3
 8003238:	260a      	movs	r6, #10
 800323a:	fb91 f5f6 	sdiv	r5, r1, r6
 800323e:	fb06 1115 	mls	r1, r6, r5, r1
 8003242:	3130      	adds	r1, #48	; 0x30
 8003244:	2d09      	cmp	r5, #9
 8003246:	f803 1c01 	strb.w	r1, [r3, #-1]
 800324a:	f103 32ff 	add.w	r2, r3, #4294967295
 800324e:	4629      	mov	r1, r5
 8003250:	dc09      	bgt.n	8003266 <__exponent+0x4c>
 8003252:	3130      	adds	r1, #48	; 0x30
 8003254:	3b02      	subs	r3, #2
 8003256:	f802 1c01 	strb.w	r1, [r2, #-1]
 800325a:	42bb      	cmp	r3, r7
 800325c:	4622      	mov	r2, r4
 800325e:	d304      	bcc.n	800326a <__exponent+0x50>
 8003260:	1a10      	subs	r0, r2, r0
 8003262:	b003      	add	sp, #12
 8003264:	bdf0      	pop	{r4, r5, r6, r7, pc}
 8003266:	4613      	mov	r3, r2
 8003268:	e7e7      	b.n	800323a <__exponent+0x20>
 800326a:	f813 2b01 	ldrb.w	r2, [r3], #1
 800326e:	f804 2b01 	strb.w	r2, [r4], #1
 8003272:	e7f2      	b.n	800325a <__exponent+0x40>
 8003274:	2330      	movs	r3, #48	; 0x30
 8003276:	4419      	add	r1, r3
 8003278:	7083      	strb	r3, [r0, #2]
 800327a:	1d02      	adds	r2, r0, #4
 800327c:	70c1      	strb	r1, [r0, #3]
 800327e:	e7ef      	b.n	8003260 <__exponent+0x46>

08003280 <_printf_float>:
 8003280:	e92d 4ff0 	stmdb	sp!, {r4, r5, r6, r7, r8, r9, sl, fp, lr}
 8003284:	b08d      	sub	sp, #52	; 0x34
 8003286:	460c      	mov	r4, r1
 8003288:	f8dd 8058 	ldr.w	r8, [sp, #88]	; 0x58
 800328c:	4616      	mov	r6, r2
 800328e:	461f      	mov	r7, r3
 8003290:	4605      	mov	r5, r0
 8003292:	f001 f8f1 	bl	8004478 <_localeconv_r>
 8003296:	6803      	ldr	r3, [r0, #0]
 8003298:	9304      	str	r3, [sp, #16]
 800329a:	4618      	mov	r0, r3
 800329c:	f7fc ff9c 	bl	80001d8 <strlen>
 80032a0:	2300      	movs	r3, #0
 80032a2:	930a      	str	r3, [sp, #40]	; 0x28
 80032a4:	f8d8 3000 	ldr.w	r3, [r8]
 80032a8:	9005      	str	r0, [sp, #20]
 80032aa:	3307      	adds	r3, #7
 80032ac:	f023 0307 	bic.w	r3, r3, #7
 80032b0:	f103 0208 	add.w	r2, r3, #8
 80032b4:	f894 a018 	ldrb.w	sl, [r4, #24]
 80032b8:	f8d4 b000 	ldr.w	fp, [r4]
 80032bc:	f8c8 2000 	str.w	r2, [r8]
 80032c0:	e9d3 2300 	ldrd	r2, r3, [r3]
 80032c4:	e9c4 2312 	strd	r2, r3, [r4, #72]	; 0x48
 80032c8:	e9d4 8912 	ldrd	r8, r9, [r4, #72]	; 0x48
 80032cc:	f029 4300 	bic.w	r3, r9, #2147483648	; 0x80000000
 80032d0:	9307      	str	r3, [sp, #28]
 80032d2:	f8cd 8018 	str.w	r8, [sp, #24]
 80032d6:	f04f 32ff 	mov.w	r2, #4294967295
 80032da:	4ba7      	ldr	r3, [pc, #668]	; (8003578 <_printf_float+0x2f8>)
 80032dc:	e9dd 0106 	ldrd	r0, r1, [sp, #24]
 80032e0:	f7fd fbd8 	bl	8000a94 <__aeabi_dcmpun>
 80032e4:	bb70      	cbnz	r0, 8003344 <_printf_float+0xc4>
 80032e6:	f04f 32ff 	mov.w	r2, #4294967295
 80032ea:	4ba3      	ldr	r3, [pc, #652]	; (8003578 <_printf_float+0x2f8>)
 80032ec:	e9dd 0106 	ldrd	r0, r1, [sp, #24]
 80032f0:	f7fd fbb2 	bl	8000a58 <__aeabi_dcmple>
 80032f4:	bb30      	cbnz	r0, 8003344 <_printf_float+0xc4>
 80032f6:	2200      	movs	r2, #0
 80032f8:	2300      	movs	r3, #0
 80032fa:	4640      	mov	r0, r8
 80032fc:	4649      	mov	r1, r9
 80032fe:	f7fd fba1 	bl	8000a44 <__aeabi_dcmplt>
 8003302:	b110      	cbz	r0, 800330a <_printf_float+0x8a>
 8003304:	232d      	movs	r3, #45	; 0x2d
 8003306:	f884 3043 	strb.w	r3, [r4, #67]	; 0x43
 800330a:	4a9c      	ldr	r2, [pc, #624]	; (800357c <_printf_float+0x2fc>)
 800330c:	4b9c      	ldr	r3, [pc, #624]	; (8003580 <_printf_float+0x300>)
 800330e:	f1ba 0f47 	cmp.w	sl, #71	; 0x47
 8003312:	bf8c      	ite	hi
 8003314:	4690      	movhi	r8, r2
 8003316:	4698      	movls	r8, r3
 8003318:	2303      	movs	r3, #3
 800331a:	f02b 0204 	bic.w	r2, fp, #4
 800331e:	6123      	str	r3, [r4, #16]
 8003320:	6022      	str	r2, [r4, #0]
 8003322:	f04f 0900 	mov.w	r9, #0
 8003326:	9700      	str	r7, [sp, #0]
 8003328:	4633      	mov	r3, r6
 800332a:	aa0b      	add	r2, sp, #44	; 0x2c
 800332c:	4621      	mov	r1, r4
 800332e:	4628      	mov	r0, r5
 8003330:	f000 f9e6 	bl	8003700 <_printf_common>
 8003334:	3001      	adds	r0, #1
 8003336:	f040 808d 	bne.w	8003454 <_printf_float+0x1d4>
 800333a:	f04f 30ff 	mov.w	r0, #4294967295
 800333e:	b00d      	add	sp, #52	; 0x34
 8003340:	e8bd 8ff0 	ldmia.w	sp!, {r4, r5, r6, r7, r8, r9, sl, fp, pc}
 8003344:	4642      	mov	r2, r8
 8003346:	464b      	mov	r3, r9
 8003348:	4640      	mov	r0, r8
 800334a:	4649      	mov	r1, r9
 800334c:	f7fd fba2 	bl	8000a94 <__aeabi_dcmpun>
 8003350:	b110      	cbz	r0, 8003358 <_printf_float+0xd8>
 8003352:	4a8c      	ldr	r2, [pc, #560]	; (8003584 <_printf_float+0x304>)
 8003354:	4b8c      	ldr	r3, [pc, #560]	; (8003588 <_printf_float+0x308>)
 8003356:	e7da      	b.n	800330e <_printf_float+0x8e>
 8003358:	6861      	ldr	r1, [r4, #4]
 800335a:	1c4b      	adds	r3, r1, #1
 800335c:	f44b 6280 	orr.w	r2, fp, #1024	; 0x400
 8003360:	a80a      	add	r0, sp, #40	; 0x28
 8003362:	d13e      	bne.n	80033e2 <_printf_float+0x162>
 8003364:	2306      	movs	r3, #6
 8003366:	6063      	str	r3, [r4, #4]
 8003368:	2300      	movs	r3, #0
 800336a:	e9cd 0302 	strd	r0, r3, [sp, #8]
 800336e:	ab09      	add	r3, sp, #36	; 0x24
 8003370:	9300      	str	r3, [sp, #0]
 8003372:	ec49 8b10 	vmov	d0, r8, r9
 8003376:	f10d 0323 	add.w	r3, sp, #35	; 0x23
 800337a:	6022      	str	r2, [r4, #0]
 800337c:	f8cd a004 	str.w	sl, [sp, #4]
 8003380:	6861      	ldr	r1, [r4, #4]
 8003382:	4628      	mov	r0, r5
 8003384:	f7ff fee8 	bl	8003158 <__cvt>
 8003388:	f00a 03df 	and.w	r3, sl, #223	; 0xdf
 800338c:	2b47      	cmp	r3, #71	; 0x47
 800338e:	4680      	mov	r8, r0
 8003390:	d109      	bne.n	80033a6 <_printf_float+0x126>
 8003392:	9b09      	ldr	r3, [sp, #36]	; 0x24
 8003394:	1cd8      	adds	r0, r3, #3
 8003396:	db02      	blt.n	800339e <_printf_float+0x11e>
 8003398:	6862      	ldr	r2, [r4, #4]
 800339a:	4293      	cmp	r3, r2
 800339c:	dd47      	ble.n	800342e <_printf_float+0x1ae>
 800339e:	f1aa 0a02 	sub.w	sl, sl, #2
 80033a2:	fa5f fa8a 	uxtb.w	sl, sl
 80033a6:	f1ba 0f65 	cmp.w	sl, #101	; 0x65
 80033aa:	9909      	ldr	r1, [sp, #36]	; 0x24
 80033ac:	d824      	bhi.n	80033f8 <_printf_float+0x178>
 80033ae:	3901      	subs	r1, #1
 80033b0:	4652      	mov	r2, sl
 80033b2:	f104 0050 	add.w	r0, r4, #80	; 0x50
 80033b6:	9109      	str	r1, [sp, #36]	; 0x24
 80033b8:	f7ff ff2f 	bl	800321a <__exponent>
 80033bc:	9a0a      	ldr	r2, [sp, #40]	; 0x28
 80033be:	1813      	adds	r3, r2, r0
 80033c0:	2a01      	cmp	r2, #1
 80033c2:	4681      	mov	r9, r0
 80033c4:	6123      	str	r3, [r4, #16]
 80033c6:	dc02      	bgt.n	80033ce <_printf_float+0x14e>
 80033c8:	6822      	ldr	r2, [r4, #0]
 80033ca:	07d1      	lsls	r1, r2, #31
 80033cc:	d501      	bpl.n	80033d2 <_printf_float+0x152>
 80033ce:	3301      	adds	r3, #1
 80033d0:	6123      	str	r3, [r4, #16]
 80033d2:	f89d 3023 	ldrb.w	r3, [sp, #35]	; 0x23
 80033d6:	2b00      	cmp	r3, #0
 80033d8:	d0a5      	beq.n	8003326 <_printf_float+0xa6>
 80033da:	232d      	movs	r3, #45	; 0x2d
 80033dc:	f884 3043 	strb.w	r3, [r4, #67]	; 0x43
 80033e0:	e7a1      	b.n	8003326 <_printf_float+0xa6>
 80033e2:	f1ba 0f67 	cmp.w	sl, #103	; 0x67
 80033e6:	f000 8177 	beq.w	80036d8 <_printf_float+0x458>
 80033ea:	f1ba 0f47 	cmp.w	sl, #71	; 0x47
 80033ee:	d1bb      	bne.n	8003368 <_printf_float+0xe8>
 80033f0:	2900      	cmp	r1, #0
 80033f2:	d1b9      	bne.n	8003368 <_printf_float+0xe8>
 80033f4:	2301      	movs	r3, #1
 80033f6:	e7b6      	b.n	8003366 <_printf_float+0xe6>
 80033f8:	f1ba 0f66 	cmp.w	sl, #102	; 0x66
 80033fc:	d119      	bne.n	8003432 <_printf_float+0x1b2>
 80033fe:	2900      	cmp	r1, #0
 8003400:	6863      	ldr	r3, [r4, #4]
 8003402:	dd0c      	ble.n	800341e <_printf_float+0x19e>
 8003404:	6121      	str	r1, [r4, #16]
 8003406:	b913      	cbnz	r3, 800340e <_printf_float+0x18e>
 8003408:	6822      	ldr	r2, [r4, #0]
 800340a:	07d2      	lsls	r2, r2, #31
 800340c:	d502      	bpl.n	8003414 <_printf_float+0x194>
 800340e:	3301      	adds	r3, #1
 8003410:	440b      	add	r3, r1
 8003412:	6123      	str	r3, [r4, #16]
 8003414:	9b09      	ldr	r3, [sp, #36]	; 0x24
 8003416:	65a3      	str	r3, [r4, #88]	; 0x58
 8003418:	f04f 0900 	mov.w	r9, #0
 800341c:	e7d9      	b.n	80033d2 <_printf_float+0x152>
 800341e:	b913      	cbnz	r3, 8003426 <_printf_float+0x1a6>
 8003420:	6822      	ldr	r2, [r4, #0]
 8003422:	07d0      	lsls	r0, r2, #31
 8003424:	d501      	bpl.n	800342a <_printf_float+0x1aa>
 8003426:	3302      	adds	r3, #2
 8003428:	e7f3      	b.n	8003412 <_printf_float+0x192>
 800342a:	2301      	movs	r3, #1
 800342c:	e7f1      	b.n	8003412 <_printf_float+0x192>
 800342e:	f04f 0a67 	mov.w	sl, #103	; 0x67
 8003432:	e9dd 3209 	ldrd	r3, r2, [sp, #36]	; 0x24
 8003436:	4293      	cmp	r3, r2
 8003438:	db05      	blt.n	8003446 <_printf_float+0x1c6>
 800343a:	6822      	ldr	r2, [r4, #0]
 800343c:	6123      	str	r3, [r4, #16]
 800343e:	07d1      	lsls	r1, r2, #31
 8003440:	d5e8      	bpl.n	8003414 <_printf_float+0x194>
 8003442:	3301      	adds	r3, #1
 8003444:	e7e5      	b.n	8003412 <_printf_float+0x192>
 8003446:	2b00      	cmp	r3, #0
 8003448:	bfd4      	ite	le
 800344a:	f1c3 0302 	rsble	r3, r3, #2
 800344e:	2301      	movgt	r3, #1
 8003450:	4413      	add	r3, r2
 8003452:	e7de      	b.n	8003412 <_printf_float+0x192>
 8003454:	6823      	ldr	r3, [r4, #0]
 8003456:	055a      	lsls	r2, r3, #21
 8003458:	d407      	bmi.n	800346a <_printf_float+0x1ea>
 800345a:	6923      	ldr	r3, [r4, #16]
 800345c:	4642      	mov	r2, r8
 800345e:	4631      	mov	r1, r6
 8003460:	4628      	mov	r0, r5
 8003462:	47b8      	blx	r7
 8003464:	3001      	adds	r0, #1
 8003466:	d12b      	bne.n	80034c0 <_printf_float+0x240>
 8003468:	e767      	b.n	800333a <_printf_float+0xba>
 800346a:	f1ba 0f65 	cmp.w	sl, #101	; 0x65
 800346e:	f240 80dc 	bls.w	800362a <_printf_float+0x3aa>
 8003472:	2200      	movs	r2, #0
 8003474:	2300      	movs	r3, #0
 8003476:	e9d4 0112 	ldrd	r0, r1, [r4, #72]	; 0x48
 800347a:	f7fd fad9 	bl	8000a30 <__aeabi_dcmpeq>
 800347e:	2800      	cmp	r0, #0
 8003480:	d033      	beq.n	80034ea <_printf_float+0x26a>
 8003482:	2301      	movs	r3, #1
 8003484:	4a41      	ldr	r2, [pc, #260]	; (800358c <_printf_float+0x30c>)
 8003486:	4631      	mov	r1, r6
 8003488:	4628      	mov	r0, r5
 800348a:	47b8      	blx	r7
 800348c:	3001      	adds	r0, #1
 800348e:	f43f af54 	beq.w	800333a <_printf_float+0xba>
 8003492:	e9dd 2309 	ldrd	r2, r3, [sp, #36]	; 0x24
 8003496:	429a      	cmp	r2, r3
 8003498:	db02      	blt.n	80034a0 <_printf_float+0x220>
 800349a:	6823      	ldr	r3, [r4, #0]
 800349c:	07d8      	lsls	r0, r3, #31
 800349e:	d50f      	bpl.n	80034c0 <_printf_float+0x240>
 80034a0:	e9dd 2304 	ldrd	r2, r3, [sp, #16]
 80034a4:	4631      	mov	r1, r6
 80034a6:	4628      	mov	r0, r5
 80034a8:	47b8      	blx	r7
 80034aa:	3001      	adds	r0, #1
 80034ac:	f43f af45 	beq.w	800333a <_printf_float+0xba>
 80034b0:	f04f 0800 	mov.w	r8, #0
 80034b4:	f104 091a 	add.w	r9, r4, #26
 80034b8:	9b0a      	ldr	r3, [sp, #40]	; 0x28
 80034ba:	3b01      	subs	r3, #1
 80034bc:	4543      	cmp	r3, r8
 80034be:	dc09      	bgt.n	80034d4 <_printf_float+0x254>
 80034c0:	6823      	ldr	r3, [r4, #0]
 80034c2:	079b      	lsls	r3, r3, #30
 80034c4:	f100 8103 	bmi.w	80036ce <_printf_float+0x44e>
 80034c8:	68e0      	ldr	r0, [r4, #12]
 80034ca:	9b0b      	ldr	r3, [sp, #44]	; 0x2c
 80034cc:	4298      	cmp	r0, r3
 80034ce:	bfb8      	it	lt
 80034d0:	4618      	movlt	r0, r3
 80034d2:	e734      	b.n	800333e <_printf_float+0xbe>
 80034d4:	2301      	movs	r3, #1
 80034d6:	464a      	mov	r2, r9
 80034d8:	4631      	mov	r1, r6
 80034da:	4628      	mov	r0, r5
 80034dc:	47b8      	blx	r7
 80034de:	3001      	adds	r0, #1
 80034e0:	f43f af2b 	beq.w	800333a <_printf_float+0xba>
 80034e4:	f108 0801 	add.w	r8, r8, #1
 80034e8:	e7e6      	b.n	80034b8 <_printf_float+0x238>
 80034ea:	9b09      	ldr	r3, [sp, #36]	; 0x24
 80034ec:	2b00      	cmp	r3, #0
 80034ee:	dc2b      	bgt.n	8003548 <_printf_float+0x2c8>
 80034f0:	2301      	movs	r3, #1
 80034f2:	4a26      	ldr	r2, [pc, #152]	; (800358c <_printf_float+0x30c>)
 80034f4:	4631      	mov	r1, r6
 80034f6:	4628      	mov	r0, r5
 80034f8:	47b8      	blx	r7
 80034fa:	3001      	adds	r0, #1
 80034fc:	f43f af1d 	beq.w	800333a <_printf_float+0xba>
 8003500:	9b09      	ldr	r3, [sp, #36]	; 0x24
 8003502:	b923      	cbnz	r3, 800350e <_printf_float+0x28e>
 8003504:	9b0a      	ldr	r3, [sp, #40]	; 0x28
 8003506:	b913      	cbnz	r3, 800350e <_printf_float+0x28e>
 8003508:	6823      	ldr	r3, [r4, #0]
 800350a:	07d9      	lsls	r1, r3, #31
 800350c:	d5d8      	bpl.n	80034c0 <_printf_float+0x240>
 800350e:	e9dd 2304 	ldrd	r2, r3, [sp, #16]
 8003512:	4631      	mov	r1, r6
 8003514:	4628      	mov	r0, r5
 8003516:	47b8      	blx	r7
 8003518:	3001      	adds	r0, #1
 800351a:	f43f af0e 	beq.w	800333a <_printf_float+0xba>
 800351e:	f04f 0900 	mov.w	r9, #0
 8003522:	f104 0a1a 	add.w	sl, r4, #26
 8003526:	9b09      	ldr	r3, [sp, #36]	; 0x24
 8003528:	425b      	negs	r3, r3
 800352a:	454b      	cmp	r3, r9
 800352c:	dc01      	bgt.n	8003532 <_printf_float+0x2b2>
 800352e:	9b0a      	ldr	r3, [sp, #40]	; 0x28
 8003530:	e794      	b.n	800345c <_printf_float+0x1dc>
 8003532:	2301      	movs	r3, #1
 8003534:	4652      	mov	r2, sl
 8003536:	4631      	mov	r1, r6
 8003538:	4628      	mov	r0, r5
 800353a:	47b8      	blx	r7
 800353c:	3001      	adds	r0, #1
 800353e:	f43f aefc 	beq.w	800333a <_printf_float+0xba>
 8003542:	f109 0901 	add.w	r9, r9, #1
 8003546:	e7ee      	b.n	8003526 <_printf_float+0x2a6>
 8003548:	9a0a      	ldr	r2, [sp, #40]	; 0x28
 800354a:	6da3      	ldr	r3, [r4, #88]	; 0x58
 800354c:	429a      	cmp	r2, r3
 800354e:	bfa8      	it	ge
 8003550:	461a      	movge	r2, r3
 8003552:	2a00      	cmp	r2, #0
 8003554:	4691      	mov	r9, r2
 8003556:	dd07      	ble.n	8003568 <_printf_float+0x2e8>
 8003558:	4613      	mov	r3, r2
 800355a:	4631      	mov	r1, r6
 800355c:	4642      	mov	r2, r8
 800355e:	4628      	mov	r0, r5
 8003560:	47b8      	blx	r7
 8003562:	3001      	adds	r0, #1
 8003564:	f43f aee9 	beq.w	800333a <_printf_float+0xba>
 8003568:	f104 031a 	add.w	r3, r4, #26
 800356c:	f04f 0b00 	mov.w	fp, #0
 8003570:	ea29 79e9 	bic.w	r9, r9, r9, asr #31
 8003574:	9306      	str	r3, [sp, #24]
 8003576:	e015      	b.n	80035a4 <_printf_float+0x324>
 8003578:	7fefffff 	.word	0x7fefffff
 800357c:	08004bdc 	.word	0x08004bdc
 8003580:	08004bd8 	.word	0x08004bd8
 8003584:	08004be4 	.word	0x08004be4
 8003588:	08004be0 	.word	0x08004be0
 800358c:	08004be8 	.word	0x08004be8
 8003590:	2301      	movs	r3, #1
 8003592:	9a06      	ldr	r2, [sp, #24]
 8003594:	4631      	mov	r1, r6
 8003596:	4628      	mov	r0, r5
 8003598:	47b8      	blx	r7
 800359a:	3001      	adds	r0, #1
 800359c:	f43f aecd 	beq.w	800333a <_printf_float+0xba>
 80035a0:	f10b 0b01 	add.w	fp, fp, #1
 80035a4:	f8d4 a058 	ldr.w	sl, [r4, #88]	; 0x58
 80035a8:	ebaa 0309 	sub.w	r3, sl, r9
 80035ac:	455b      	cmp	r3, fp
 80035ae:	dcef      	bgt.n	8003590 <_printf_float+0x310>
 80035b0:	e9dd 2309 	ldrd	r2, r3, [sp, #36]	; 0x24
 80035b4:	429a      	cmp	r2, r3
 80035b6:	44d0      	add	r8, sl
 80035b8:	db15      	blt.n	80035e6 <_printf_float+0x366>
 80035ba:	6823      	ldr	r3, [r4, #0]
 80035bc:	07da      	lsls	r2, r3, #31
 80035be:	d412      	bmi.n	80035e6 <_printf_float+0x366>
 80035c0:	9b0a      	ldr	r3, [sp, #40]	; 0x28
 80035c2:	9909      	ldr	r1, [sp, #36]	; 0x24
 80035c4:	eba3 020a 	sub.w	r2, r3, sl
 80035c8:	eba3 0a01 	sub.w	sl, r3, r1
 80035cc:	4592      	cmp	sl, r2
 80035ce:	bfa8      	it	ge
 80035d0:	4692      	movge	sl, r2
 80035d2:	f1ba 0f00 	cmp.w	sl, #0
 80035d6:	dc0e      	bgt.n	80035f6 <_printf_float+0x376>
 80035d8:	f04f 0800 	mov.w	r8, #0
 80035dc:	ea2a 7aea 	bic.w	sl, sl, sl, asr #31
 80035e0:	f104 091a 	add.w	r9, r4, #26
 80035e4:	e019      	b.n	800361a <_printf_float+0x39a>
 80035e6:	e9dd 2304 	ldrd	r2, r3, [sp, #16]
 80035ea:	4631      	mov	r1, r6
 80035ec:	4628      	mov	r0, r5
 80035ee:	47b8      	blx	r7
 80035f0:	3001      	adds	r0, #1
 80035f2:	d1e5      	bne.n	80035c0 <_printf_float+0x340>
 80035f4:	e6a1      	b.n	800333a <_printf_float+0xba>
 80035f6:	4653      	mov	r3, sl
 80035f8:	4642      	mov	r2, r8
 80035fa:	4631      	mov	r1, r6
 80035fc:	4628      	mov	r0, r5
 80035fe:	47b8      	blx	r7
 8003600:	3001      	adds	r0, #1
 8003602:	d1e9      	bne.n	80035d8 <_printf_float+0x358>
 8003604:	e699      	b.n	800333a <_printf_float+0xba>
 8003606:	2301      	movs	r3, #1
 8003608:	464a      	mov	r2, r9
 800360a:	4631      	mov	r1, r6
 800360c:	4628      	mov	r0, r5
 800360e:	47b8      	blx	r7
 8003610:	3001      	adds	r0, #1
 8003612:	f43f ae92 	beq.w	800333a <_printf_float+0xba>
 8003616:	f108 0801 	add.w	r8, r8, #1
 800361a:	e9dd 2309 	ldrd	r2, r3, [sp, #36]	; 0x24
 800361e:	1a9b      	subs	r3, r3, r2
 8003620:	eba3 030a 	sub.w	r3, r3, sl
 8003624:	4543      	cmp	r3, r8
 8003626:	dcee      	bgt.n	8003606 <_printf_float+0x386>
 8003628:	e74a      	b.n	80034c0 <_printf_float+0x240>
 800362a:	9a0a      	ldr	r2, [sp, #40]	; 0x28
 800362c:	2a01      	cmp	r2, #1
 800362e:	dc01      	bgt.n	8003634 <_printf_float+0x3b4>
 8003630:	07db      	lsls	r3, r3, #31
 8003632:	d53a      	bpl.n	80036aa <_printf_float+0x42a>
 8003634:	2301      	movs	r3, #1
 8003636:	4642      	mov	r2, r8
 8003638:	4631      	mov	r1, r6
 800363a:	4628      	mov	r0, r5
 800363c:	47b8      	blx	r7
 800363e:	3001      	adds	r0, #1
 8003640:	f43f ae7b 	beq.w	800333a <_printf_float+0xba>
 8003644:	e9dd 2304 	ldrd	r2, r3, [sp, #16]
 8003648:	4631      	mov	r1, r6
 800364a:	4628      	mov	r0, r5
 800364c:	47b8      	blx	r7
 800364e:	3001      	adds	r0, #1
 8003650:	f108 0801 	add.w	r8, r8, #1
 8003654:	f43f ae71 	beq.w	800333a <_printf_float+0xba>
 8003658:	9b0a      	ldr	r3, [sp, #40]	; 0x28
 800365a:	2200      	movs	r2, #0
 800365c:	f103 3aff 	add.w	sl, r3, #4294967295
 8003660:	e9d4 0112 	ldrd	r0, r1, [r4, #72]	; 0x48
 8003664:	2300      	movs	r3, #0
 8003666:	f7fd f9e3 	bl	8000a30 <__aeabi_dcmpeq>
 800366a:	b9c8      	cbnz	r0, 80036a0 <_printf_float+0x420>
 800366c:	4653      	mov	r3, sl
 800366e:	4642      	mov	r2, r8
 8003670:	4631      	mov	r1, r6
 8003672:	4628      	mov	r0, r5
 8003674:	47b8      	blx	r7
 8003676:	3001      	adds	r0, #1
 8003678:	d10e      	bne.n	8003698 <_printf_float+0x418>
 800367a:	e65e      	b.n	800333a <_printf_float+0xba>
 800367c:	2301      	movs	r3, #1
 800367e:	4652      	mov	r2, sl
 8003680:	4631      	mov	r1, r6
 8003682:	4628      	mov	r0, r5
 8003684:	47b8      	blx	r7
 8003686:	3001      	adds	r0, #1
 8003688:	f43f ae57 	beq.w	800333a <_printf_float+0xba>
 800368c:	f108 0801 	add.w	r8, r8, #1
 8003690:	9b0a      	ldr	r3, [sp, #40]	; 0x28
 8003692:	3b01      	subs	r3, #1
 8003694:	4543      	cmp	r3, r8
 8003696:	dcf1      	bgt.n	800367c <_printf_float+0x3fc>
 8003698:	464b      	mov	r3, r9
 800369a:	f104 0250 	add.w	r2, r4, #80	; 0x50
 800369e:	e6de      	b.n	800345e <_printf_float+0x1de>
 80036a0:	f04f 0800 	mov.w	r8, #0
 80036a4:	f104 0a1a 	add.w	sl, r4, #26
 80036a8:	e7f2      	b.n	8003690 <_printf_float+0x410>
 80036aa:	2301      	movs	r3, #1
 80036ac:	e7df      	b.n	800366e <_printf_float+0x3ee>
 80036ae:	2301      	movs	r3, #1
 80036b0:	464a      	mov	r2, r9
 80036b2:	4631      	mov	r1, r6
 80036b4:	4628      	mov	r0, r5
 80036b6:	47b8      	blx	r7
 80036b8:	3001      	adds	r0, #1
 80036ba:	f43f ae3e 	beq.w	800333a <_printf_float+0xba>
 80036be:	f108 0801 	add.w	r8, r8, #1
 80036c2:	68e3      	ldr	r3, [r4, #12]
 80036c4:	9a0b      	ldr	r2, [sp, #44]	; 0x2c
 80036c6:	1a9b      	subs	r3, r3, r2
 80036c8:	4543      	cmp	r3, r8
 80036ca:	dcf0      	bgt.n	80036ae <_printf_float+0x42e>
 80036cc:	e6fc      	b.n	80034c8 <_printf_float+0x248>
 80036ce:	f04f 0800 	mov.w	r8, #0
 80036d2:	f104 0919 	add.w	r9, r4, #25
 80036d6:	e7f4      	b.n	80036c2 <_printf_float+0x442>
 80036d8:	2900      	cmp	r1, #0
 80036da:	f43f ae8b 	beq.w	80033f4 <_printf_float+0x174>
 80036de:	2300      	movs	r3, #0
 80036e0:	e9cd 0302 	strd	r0, r3, [sp, #8]
 80036e4:	ab09      	add	r3, sp, #36	; 0x24
 80036e6:	9300      	str	r3, [sp, #0]
 80036e8:	ec49 8b10 	vmov	d0, r8, r9
 80036ec:	6022      	str	r2, [r4, #0]
 80036ee:	f8cd a004 	str.w	sl, [sp, #4]
 80036f2:	f10d 0323 	add.w	r3, sp, #35	; 0x23
 80036f6:	4628      	mov	r0, r5
 80036f8:	f7ff fd2e 	bl	8003158 <__cvt>
 80036fc:	4680      	mov	r8, r0
 80036fe:	e648      	b.n	8003392 <_printf_float+0x112>

08003700 <_printf_common>:
 8003700:	e92d 47f0 	stmdb	sp!, {r4, r5, r6, r7, r8, r9, sl, lr}
 8003704:	4691      	mov	r9, r2
 8003706:	461f      	mov	r7, r3
 8003708:	688a      	ldr	r2, [r1, #8]
 800370a:	690b      	ldr	r3, [r1, #16]
 800370c:	f8dd 8020 	ldr.w	r8, [sp, #32]
 8003710:	4293      	cmp	r3, r2
 8003712:	bfb8      	it	lt
 8003714:	4613      	movlt	r3, r2
 8003716:	f8c9 3000 	str.w	r3, [r9]
 800371a:	f891 2043 	ldrb.w	r2, [r1, #67]	; 0x43
 800371e:	4606      	mov	r6, r0
 8003720:	460c      	mov	r4, r1
 8003722:	b112      	cbz	r2, 800372a <_printf_common+0x2a>
 8003724:	3301      	adds	r3, #1
 8003726:	f8c9 3000 	str.w	r3, [r9]
 800372a:	6823      	ldr	r3, [r4, #0]
 800372c:	0699      	lsls	r1, r3, #26
 800372e:	bf42      	ittt	mi
 8003730:	f8d9 3000 	ldrmi.w	r3, [r9]
 8003734:	3302      	addmi	r3, #2
 8003736:	f8c9 3000 	strmi.w	r3, [r9]
 800373a:	6825      	ldr	r5, [r4, #0]
 800373c:	f015 0506 	ands.w	r5, r5, #6
 8003740:	d107      	bne.n	8003752 <_printf_common+0x52>
 8003742:	f104 0a19 	add.w	sl, r4, #25
 8003746:	68e3      	ldr	r3, [r4, #12]
 8003748:	f8d9 2000 	ldr.w	r2, [r9]
 800374c:	1a9b      	subs	r3, r3, r2
 800374e:	42ab      	cmp	r3, r5
 8003750:	dc28      	bgt.n	80037a4 <_printf_common+0xa4>
 8003752:	f894 3043 	ldrb.w	r3, [r4, #67]	; 0x43
 8003756:	6822      	ldr	r2, [r4, #0]
 8003758:	3300      	adds	r3, #0
 800375a:	bf18      	it	ne
 800375c:	2301      	movne	r3, #1
 800375e:	0692      	lsls	r2, r2, #26
 8003760:	d42d      	bmi.n	80037be <_printf_common+0xbe>
 8003762:	f104 0243 	add.w	r2, r4, #67	; 0x43
 8003766:	4639      	mov	r1, r7
 8003768:	4630      	mov	r0, r6
 800376a:	47c0      	blx	r8
 800376c:	3001      	adds	r0, #1
 800376e:	d020      	beq.n	80037b2 <_printf_common+0xb2>
 8003770:	6823      	ldr	r3, [r4, #0]
 8003772:	68e5      	ldr	r5, [r4, #12]
 8003774:	f8d9 2000 	ldr.w	r2, [r9]
 8003778:	f003 0306 	and.w	r3, r3, #6
 800377c:	2b04      	cmp	r3, #4
 800377e:	bf08      	it	eq
 8003780:	1aad      	subeq	r5, r5, r2
 8003782:	68a3      	ldr	r3, [r4, #8]
 8003784:	6922      	ldr	r2, [r4, #16]
 8003786:	bf0c      	ite	eq
 8003788:	ea25 75e5 	biceq.w	r5, r5, r5, asr #31
 800378c:	2500      	movne	r5, #0
 800378e:	4293      	cmp	r3, r2
 8003790:	bfc4      	itt	gt
 8003792:	1a9b      	subgt	r3, r3, r2
 8003794:	18ed      	addgt	r5, r5, r3
 8003796:	f04f 0900 	mov.w	r9, #0
 800379a:	341a      	adds	r4, #26
 800379c:	454d      	cmp	r5, r9
 800379e:	d11a      	bne.n	80037d6 <_printf_common+0xd6>
 80037a0:	2000      	movs	r0, #0
 80037a2:	e008      	b.n	80037b6 <_printf_common+0xb6>
 80037a4:	2301      	movs	r3, #1
 80037a6:	4652      	mov	r2, sl
 80037a8:	4639      	mov	r1, r7
 80037aa:	4630      	mov	r0, r6
 80037ac:	47c0      	blx	r8
 80037ae:	3001      	adds	r0, #1
 80037b0:	d103      	bne.n	80037ba <_printf_common+0xba>
 80037b2:	f04f 30ff 	mov.w	r0, #4294967295
 80037b6:	e8bd 87f0 	ldmia.w	sp!, {r4, r5, r6, r7, r8, r9, sl, pc}
 80037ba:	3501      	adds	r5, #1
 80037bc:	e7c3      	b.n	8003746 <_printf_common+0x46>
 80037be:	18e1      	adds	r1, r4, r3
 80037c0:	1c5a      	adds	r2, r3, #1
 80037c2:	2030      	movs	r0, #48	; 0x30
 80037c4:	f881 0043 	strb.w	r0, [r1, #67]	; 0x43
 80037c8:	4422      	add	r2, r4
 80037ca:	f894 1045 	ldrb.w	r1, [r4, #69]	; 0x45
 80037ce:	f882 1043 	strb.w	r1, [r2, #67]	; 0x43
 80037d2:	3302      	adds	r3, #2
 80037d4:	e7c5      	b.n	8003762 <_printf_common+0x62>
 80037d6:	2301      	movs	r3, #1
 80037d8:	4622      	mov	r2, r4
 80037da:	4639      	mov	r1, r7
 80037dc:	4630      	mov	r0, r6
 80037de:	47c0      	blx	r8
 80037e0:	3001      	adds	r0, #1
 80037e2:	d0e6      	beq.n	80037b2 <_printf_common+0xb2>
 80037e4:	f109 0901 	add.w	r9, r9, #1
 80037e8:	e7d8      	b.n	800379c <_printf_common+0x9c>

080037ea <quorem>:
 80037ea:	e92d 4ff7 	stmdb	sp!, {r0, r1, r2, r4, r5, r6, r7, r8, r9, sl, fp, lr}
 80037ee:	6903      	ldr	r3, [r0, #16]
 80037f0:	690c      	ldr	r4, [r1, #16]
 80037f2:	42a3      	cmp	r3, r4
 80037f4:	4680      	mov	r8, r0
 80037f6:	f2c0 8082 	blt.w	80038fe <quorem+0x114>
 80037fa:	3c01      	subs	r4, #1
 80037fc:	f101 0714 	add.w	r7, r1, #20
 8003800:	ea4f 0c84 	mov.w	ip, r4, lsl #2
 8003804:	f100 0614 	add.w	r6, r0, #20
 8003808:	f857 5024 	ldr.w	r5, [r7, r4, lsl #2]
 800380c:	f856 0024 	ldr.w	r0, [r6, r4, lsl #2]
 8003810:	eb06 030c 	add.w	r3, r6, ip
 8003814:	3501      	adds	r5, #1
 8003816:	eb07 090c 	add.w	r9, r7, ip
 800381a:	9301      	str	r3, [sp, #4]
 800381c:	fbb0 f5f5 	udiv	r5, r0, r5
 8003820:	b395      	cbz	r5, 8003888 <quorem+0x9e>
 8003822:	f04f 0a00 	mov.w	sl, #0
 8003826:	4638      	mov	r0, r7
 8003828:	46b6      	mov	lr, r6
 800382a:	46d3      	mov	fp, sl
 800382c:	f850 2b04 	ldr.w	r2, [r0], #4
 8003830:	b293      	uxth	r3, r2
 8003832:	fb05 a303 	mla	r3, r5, r3, sl
 8003836:	ea4f 4a13 	mov.w	sl, r3, lsr #16
 800383a:	b29b      	uxth	r3, r3
 800383c:	ebab 0303 	sub.w	r3, fp, r3
 8003840:	0c12      	lsrs	r2, r2, #16
 8003842:	f8de b000 	ldr.w	fp, [lr]
 8003846:	fb05 a202 	mla	r2, r5, r2, sl
 800384a:	fa13 f38b 	uxtah	r3, r3, fp
 800384e:	ea4f 4a12 	mov.w	sl, r2, lsr #16
 8003852:	fa1f fb82 	uxth.w	fp, r2
 8003856:	f8de 2000 	ldr.w	r2, [lr]
 800385a:	ebcb 4212 	rsb	r2, fp, r2, lsr #16
 800385e:	eb02 4223 	add.w	r2, r2, r3, asr #16
 8003862:	b29b      	uxth	r3, r3
 8003864:	ea43 4302 	orr.w	r3, r3, r2, lsl #16
 8003868:	4581      	cmp	r9, r0
 800386a:	ea4f 4b22 	mov.w	fp, r2, asr #16
 800386e:	f84e 3b04 	str.w	r3, [lr], #4
 8003872:	d2db      	bcs.n	800382c <quorem+0x42>
 8003874:	f856 300c 	ldr.w	r3, [r6, ip]
 8003878:	b933      	cbnz	r3, 8003888 <quorem+0x9e>
 800387a:	9b01      	ldr	r3, [sp, #4]
 800387c:	3b04      	subs	r3, #4
 800387e:	429e      	cmp	r6, r3
 8003880:	461a      	mov	r2, r3
 8003882:	d330      	bcc.n	80038e6 <quorem+0xfc>
 8003884:	f8c8 4010 	str.w	r4, [r8, #16]
 8003888:	4640      	mov	r0, r8
 800388a:	f001 f82b 	bl	80048e4 <__mcmp>
 800388e:	2800      	cmp	r0, #0
 8003890:	db25      	blt.n	80038de <quorem+0xf4>
 8003892:	3501      	adds	r5, #1
 8003894:	4630      	mov	r0, r6
 8003896:	f04f 0c00 	mov.w	ip, #0
 800389a:	f857 2b04 	ldr.w	r2, [r7], #4
 800389e:	f8d0 e000 	ldr.w	lr, [r0]
 80038a2:	b293      	uxth	r3, r2
 80038a4:	ebac 0303 	sub.w	r3, ip, r3
 80038a8:	0c12      	lsrs	r2, r2, #16
 80038aa:	fa13 f38e 	uxtah	r3, r3, lr
 80038ae:	ebc2 421e 	rsb	r2, r2, lr, lsr #16
 80038b2:	eb02 4223 	add.w	r2, r2, r3, asr #16
 80038b6:	b29b      	uxth	r3, r3
 80038b8:	ea43 4302 	orr.w	r3, r3, r2, lsl #16
 80038bc:	45b9      	cmp	r9, r7
 80038be:	ea4f 4c22 	mov.w	ip, r2, asr #16
 80038c2:	f840 3b04 	str.w	r3, [r0], #4
 80038c6:	d2e8      	bcs.n	800389a <quorem+0xb0>
 80038c8:	f856 2024 	ldr.w	r2, [r6, r4, lsl #2]
 80038cc:	eb06 0384 	add.w	r3, r6, r4, lsl #2
 80038d0:	b92a      	cbnz	r2, 80038de <quorem+0xf4>
 80038d2:	3b04      	subs	r3, #4
 80038d4:	429e      	cmp	r6, r3
 80038d6:	461a      	mov	r2, r3
 80038d8:	d30b      	bcc.n	80038f2 <quorem+0x108>
 80038da:	f8c8 4010 	str.w	r4, [r8, #16]
 80038de:	4628      	mov	r0, r5
 80038e0:	b003      	add	sp, #12
 80038e2:	e8bd 8ff0 	ldmia.w	sp!, {r4, r5, r6, r7, r8, r9, sl, fp, pc}
 80038e6:	6812      	ldr	r2, [r2, #0]
 80038e8:	3b04      	subs	r3, #4
 80038ea:	2a00      	cmp	r2, #0
 80038ec:	d1ca      	bne.n	8003884 <quorem+0x9a>
 80038ee:	3c01      	subs	r4, #1
 80038f0:	e7c5      	b.n	800387e <quorem+0x94>
 80038f2:	6812      	ldr	r2, [r2, #0]
 80038f4:	3b04      	subs	r3, #4
 80038f6:	2a00      	cmp	r2, #0
 80038f8:	d1ef      	bne.n	80038da <quorem+0xf0>
 80038fa:	3c01      	subs	r4, #1
 80038fc:	e7ea      	b.n	80038d4 <quorem+0xea>
 80038fe:	2000      	movs	r0, #0
 8003900:	e7ee      	b.n	80038e0 <quorem+0xf6>
 8003902:	0000      	movs	r0, r0
 8003904:	0000      	movs	r0, r0
	...

08003908 <_dtoa_r>:
 8003908:	e92d 4ff0 	stmdb	sp!, {r4, r5, r6, r7, r8, r9, sl, fp, lr}
 800390c:	ec57 6b10 	vmov	r6, r7, d0
 8003910:	b097      	sub	sp, #92	; 0x5c
 8003912:	6a45      	ldr	r5, [r0, #36]	; 0x24
 8003914:	9106      	str	r1, [sp, #24]
 8003916:	4604      	mov	r4, r0
 8003918:	920b      	str	r2, [sp, #44]	; 0x2c
 800391a:	9312      	str	r3, [sp, #72]	; 0x48
 800391c:	f8dd 8080 	ldr.w	r8, [sp, #128]	; 0x80
 8003920:	e9cd 6700 	strd	r6, r7, [sp]
 8003924:	b93d      	cbnz	r5, 8003936 <_dtoa_r+0x2e>
 8003926:	2010      	movs	r0, #16
 8003928:	f000 fdb4 	bl	8004494 <malloc>
 800392c:	6260      	str	r0, [r4, #36]	; 0x24
 800392e:	e9c0 5501 	strd	r5, r5, [r0, #4]
 8003932:	6005      	str	r5, [r0, #0]
 8003934:	60c5      	str	r5, [r0, #12]
 8003936:	6a63      	ldr	r3, [r4, #36]	; 0x24
 8003938:	6819      	ldr	r1, [r3, #0]
 800393a:	b151      	cbz	r1, 8003952 <_dtoa_r+0x4a>
 800393c:	685a      	ldr	r2, [r3, #4]
 800393e:	604a      	str	r2, [r1, #4]
 8003940:	2301      	movs	r3, #1
 8003942:	4093      	lsls	r3, r2
 8003944:	608b      	str	r3, [r1, #8]
 8003946:	4620      	mov	r0, r4
 8003948:	f000 fdeb 	bl	8004522 <_Bfree>
 800394c:	6a63      	ldr	r3, [r4, #36]	; 0x24
 800394e:	2200      	movs	r2, #0
 8003950:	601a      	str	r2, [r3, #0]
 8003952:	1e3b      	subs	r3, r7, #0
 8003954:	bfbb      	ittet	lt
 8003956:	f023 4300 	biclt.w	r3, r3, #2147483648	; 0x80000000
 800395a:	9301      	strlt	r3, [sp, #4]
 800395c:	2300      	movge	r3, #0
 800395e:	2201      	movlt	r2, #1
 8003960:	bfac      	ite	ge
 8003962:	f8c8 3000 	strge.w	r3, [r8]
 8003966:	f8c8 2000 	strlt.w	r2, [r8]
 800396a:	4baf      	ldr	r3, [pc, #700]	; (8003c28 <_dtoa_r+0x320>)
 800396c:	f8dd 8004 	ldr.w	r8, [sp, #4]
 8003970:	ea33 0308 	bics.w	r3, r3, r8
 8003974:	d114      	bne.n	80039a0 <_dtoa_r+0x98>
 8003976:	9a12      	ldr	r2, [sp, #72]	; 0x48
 8003978:	f242 730f 	movw	r3, #9999	; 0x270f
 800397c:	6013      	str	r3, [r2, #0]
 800397e:	9b00      	ldr	r3, [sp, #0]
 8003980:	b923      	cbnz	r3, 800398c <_dtoa_r+0x84>
 8003982:	f3c8 0013 	ubfx	r0, r8, #0, #20
 8003986:	2800      	cmp	r0, #0
 8003988:	f000 8542 	beq.w	8004410 <_dtoa_r+0xb08>
 800398c:	9b21      	ldr	r3, [sp, #132]	; 0x84
 800398e:	f8df b2ac 	ldr.w	fp, [pc, #684]	; 8003c3c <_dtoa_r+0x334>
 8003992:	2b00      	cmp	r3, #0
 8003994:	f000 8544 	beq.w	8004420 <_dtoa_r+0xb18>
 8003998:	f10b 0303 	add.w	r3, fp, #3
 800399c:	f000 bd3e 	b.w	800441c <_dtoa_r+0xb14>
 80039a0:	e9dd 6700 	ldrd	r6, r7, [sp]
 80039a4:	2200      	movs	r2, #0
 80039a6:	2300      	movs	r3, #0
 80039a8:	4630      	mov	r0, r6
 80039aa:	4639      	mov	r1, r7
 80039ac:	f7fd f840 	bl	8000a30 <__aeabi_dcmpeq>
 80039b0:	4681      	mov	r9, r0
 80039b2:	b168      	cbz	r0, 80039d0 <_dtoa_r+0xc8>
 80039b4:	9a12      	ldr	r2, [sp, #72]	; 0x48
 80039b6:	2301      	movs	r3, #1
 80039b8:	6013      	str	r3, [r2, #0]
 80039ba:	9b21      	ldr	r3, [sp, #132]	; 0x84
 80039bc:	2b00      	cmp	r3, #0
 80039be:	f000 8524 	beq.w	800440a <_dtoa_r+0xb02>
 80039c2:	4b9a      	ldr	r3, [pc, #616]	; (8003c2c <_dtoa_r+0x324>)
 80039c4:	9a21      	ldr	r2, [sp, #132]	; 0x84
 80039c6:	f103 3bff 	add.w	fp, r3, #4294967295
 80039ca:	6013      	str	r3, [r2, #0]
 80039cc:	f000 bd28 	b.w	8004420 <_dtoa_r+0xb18>
 80039d0:	aa14      	add	r2, sp, #80	; 0x50
 80039d2:	a915      	add	r1, sp, #84	; 0x54
 80039d4:	ec47 6b10 	vmov	d0, r6, r7
 80039d8:	4620      	mov	r0, r4
 80039da:	f000 fffa 	bl	80049d2 <__d2b>
 80039de:	f3c8 550a 	ubfx	r5, r8, #20, #11
 80039e2:	9004      	str	r0, [sp, #16]
 80039e4:	2d00      	cmp	r5, #0
 80039e6:	d07c      	beq.n	8003ae2 <_dtoa_r+0x1da>
 80039e8:	f3c7 0313 	ubfx	r3, r7, #0, #20
 80039ec:	f043 5b7f 	orr.w	fp, r3, #1069547520	; 0x3fc00000
 80039f0:	46b2      	mov	sl, r6
 80039f2:	f44b 1b40 	orr.w	fp, fp, #3145728	; 0x300000
 80039f6:	f2a5 35ff 	subw	r5, r5, #1023	; 0x3ff
 80039fa:	f8cd 904c 	str.w	r9, [sp, #76]	; 0x4c
 80039fe:	2200      	movs	r2, #0
 8003a00:	4b8b      	ldr	r3, [pc, #556]	; (8003c30 <_dtoa_r+0x328>)
 8003a02:	4650      	mov	r0, sl
 8003a04:	4659      	mov	r1, fp
 8003a06:	f7fc fbf3 	bl	80001f0 <__aeabi_dsub>
 8003a0a:	a381      	add	r3, pc, #516	; (adr r3, 8003c10 <_dtoa_r+0x308>)
 8003a0c:	e9d3 2300 	ldrd	r2, r3, [r3]
 8003a10:	f7fc fda6 	bl	8000560 <__aeabi_dmul>
 8003a14:	a380      	add	r3, pc, #512	; (adr r3, 8003c18 <_dtoa_r+0x310>)
 8003a16:	e9d3 2300 	ldrd	r2, r3, [r3]
 8003a1a:	f7fc fbeb 	bl	80001f4 <__adddf3>
 8003a1e:	4606      	mov	r6, r0
 8003a20:	4628      	mov	r0, r5
 8003a22:	460f      	mov	r7, r1
 8003a24:	f7fc fd32 	bl	800048c <__aeabi_i2d>
 8003a28:	a37d      	add	r3, pc, #500	; (adr r3, 8003c20 <_dtoa_r+0x318>)
 8003a2a:	e9d3 2300 	ldrd	r2, r3, [r3]
 8003a2e:	f7fc fd97 	bl	8000560 <__aeabi_dmul>
 8003a32:	4602      	mov	r2, r0
 8003a34:	460b      	mov	r3, r1
 8003a36:	4630      	mov	r0, r6
 8003a38:	4639      	mov	r1, r7
 8003a3a:	f7fc fbdb 	bl	80001f4 <__adddf3>
 8003a3e:	4606      	mov	r6, r0
 8003a40:	460f      	mov	r7, r1
 8003a42:	f7fd f83d 	bl	8000ac0 <__aeabi_d2iz>
 8003a46:	2200      	movs	r2, #0
 8003a48:	4682      	mov	sl, r0
 8003a4a:	2300      	movs	r3, #0
 8003a4c:	4630      	mov	r0, r6
 8003a4e:	4639      	mov	r1, r7
 8003a50:	f7fc fff8 	bl	8000a44 <__aeabi_dcmplt>
 8003a54:	b148      	cbz	r0, 8003a6a <_dtoa_r+0x162>
 8003a56:	4650      	mov	r0, sl
 8003a58:	f7fc fd18 	bl	800048c <__aeabi_i2d>
 8003a5c:	4632      	mov	r2, r6
 8003a5e:	463b      	mov	r3, r7
 8003a60:	f7fc ffe6 	bl	8000a30 <__aeabi_dcmpeq>
 8003a64:	b908      	cbnz	r0, 8003a6a <_dtoa_r+0x162>
 8003a66:	f10a 3aff 	add.w	sl, sl, #4294967295
 8003a6a:	f1ba 0f16 	cmp.w	sl, #22
 8003a6e:	d859      	bhi.n	8003b24 <_dtoa_r+0x21c>
 8003a70:	4970      	ldr	r1, [pc, #448]	; (8003c34 <_dtoa_r+0x32c>)
 8003a72:	eb01 01ca 	add.w	r1, r1, sl, lsl #3
 8003a76:	e9dd 2300 	ldrd	r2, r3, [sp]
 8003a7a:	e9d1 0100 	ldrd	r0, r1, [r1]
 8003a7e:	f7fc ffff 	bl	8000a80 <__aeabi_dcmpgt>
 8003a82:	2800      	cmp	r0, #0
 8003a84:	d050      	beq.n	8003b28 <_dtoa_r+0x220>
 8003a86:	f10a 3aff 	add.w	sl, sl, #4294967295
 8003a8a:	2300      	movs	r3, #0
 8003a8c:	930f      	str	r3, [sp, #60]	; 0x3c
 8003a8e:	9b14      	ldr	r3, [sp, #80]	; 0x50
 8003a90:	1b5d      	subs	r5, r3, r5
 8003a92:	f1b5 0801 	subs.w	r8, r5, #1
 8003a96:	bf49      	itett	mi
 8003a98:	f1c5 0301 	rsbmi	r3, r5, #1
 8003a9c:	2300      	movpl	r3, #0
 8003a9e:	9305      	strmi	r3, [sp, #20]
 8003aa0:	f04f 0800 	movmi.w	r8, #0
 8003aa4:	bf58      	it	pl
 8003aa6:	9305      	strpl	r3, [sp, #20]
 8003aa8:	f1ba 0f00 	cmp.w	sl, #0
 8003aac:	db3e      	blt.n	8003b2c <_dtoa_r+0x224>
 8003aae:	2300      	movs	r3, #0
 8003ab0:	44d0      	add	r8, sl
 8003ab2:	f8cd a038 	str.w	sl, [sp, #56]	; 0x38
 8003ab6:	9307      	str	r3, [sp, #28]
 8003ab8:	9b06      	ldr	r3, [sp, #24]
 8003aba:	2b09      	cmp	r3, #9
 8003abc:	f200 8090 	bhi.w	8003be0 <_dtoa_r+0x2d8>
 8003ac0:	2b05      	cmp	r3, #5
 8003ac2:	bfc4      	itt	gt
 8003ac4:	3b04      	subgt	r3, #4
 8003ac6:	9306      	strgt	r3, [sp, #24]
 8003ac8:	9b06      	ldr	r3, [sp, #24]
 8003aca:	f1a3 0302 	sub.w	r3, r3, #2
 8003ace:	bfcc      	ite	gt
 8003ad0:	2500      	movgt	r5, #0
 8003ad2:	2501      	movle	r5, #1
 8003ad4:	2b03      	cmp	r3, #3
 8003ad6:	f200 808f 	bhi.w	8003bf8 <_dtoa_r+0x2f0>
 8003ada:	e8df f003 	tbb	[pc, r3]
 8003ade:	7f7d      	.short	0x7f7d
 8003ae0:	7131      	.short	0x7131
 8003ae2:	e9dd 5314 	ldrd	r5, r3, [sp, #80]	; 0x50
 8003ae6:	441d      	add	r5, r3
 8003ae8:	f205 4032 	addw	r0, r5, #1074	; 0x432
 8003aec:	2820      	cmp	r0, #32
 8003aee:	dd13      	ble.n	8003b18 <_dtoa_r+0x210>
 8003af0:	f1c0 0040 	rsb	r0, r0, #64	; 0x40
 8003af4:	9b00      	ldr	r3, [sp, #0]
 8003af6:	fa08 f800 	lsl.w	r8, r8, r0
 8003afa:	f205 4012 	addw	r0, r5, #1042	; 0x412
 8003afe:	fa23 f000 	lsr.w	r0, r3, r0
 8003b02:	ea48 0000 	orr.w	r0, r8, r0
 8003b06:	f7fc fcb1 	bl	800046c <__aeabi_ui2d>
 8003b0a:	2301      	movs	r3, #1
 8003b0c:	4682      	mov	sl, r0
 8003b0e:	f1a1 7bf8 	sub.w	fp, r1, #32505856	; 0x1f00000
 8003b12:	3d01      	subs	r5, #1
 8003b14:	9313      	str	r3, [sp, #76]	; 0x4c
 8003b16:	e772      	b.n	80039fe <_dtoa_r+0xf6>
 8003b18:	9b00      	ldr	r3, [sp, #0]
 8003b1a:	f1c0 0020 	rsb	r0, r0, #32
 8003b1e:	fa03 f000 	lsl.w	r0, r3, r0
 8003b22:	e7f0      	b.n	8003b06 <_dtoa_r+0x1fe>
 8003b24:	2301      	movs	r3, #1
 8003b26:	e7b1      	b.n	8003a8c <_dtoa_r+0x184>
 8003b28:	900f      	str	r0, [sp, #60]	; 0x3c
 8003b2a:	e7b0      	b.n	8003a8e <_dtoa_r+0x186>
 8003b2c:	9b05      	ldr	r3, [sp, #20]
 8003b2e:	eba3 030a 	sub.w	r3, r3, sl
 8003b32:	9305      	str	r3, [sp, #20]
 8003b34:	f1ca 0300 	rsb	r3, sl, #0
 8003b38:	9307      	str	r3, [sp, #28]
 8003b3a:	2300      	movs	r3, #0
 8003b3c:	930e      	str	r3, [sp, #56]	; 0x38
 8003b3e:	e7bb      	b.n	8003ab8 <_dtoa_r+0x1b0>
 8003b40:	2301      	movs	r3, #1
 8003b42:	930a      	str	r3, [sp, #40]	; 0x28
 8003b44:	9b0b      	ldr	r3, [sp, #44]	; 0x2c
 8003b46:	2b00      	cmp	r3, #0
 8003b48:	dd59      	ble.n	8003bfe <_dtoa_r+0x2f6>
 8003b4a:	9302      	str	r3, [sp, #8]
 8003b4c:	4699      	mov	r9, r3
 8003b4e:	6a66      	ldr	r6, [r4, #36]	; 0x24
 8003b50:	2200      	movs	r2, #0
 8003b52:	6072      	str	r2, [r6, #4]
 8003b54:	2204      	movs	r2, #4
 8003b56:	f102 0014 	add.w	r0, r2, #20
 8003b5a:	4298      	cmp	r0, r3
 8003b5c:	6871      	ldr	r1, [r6, #4]
 8003b5e:	d953      	bls.n	8003c08 <_dtoa_r+0x300>
 8003b60:	4620      	mov	r0, r4
 8003b62:	f000 fcaa 	bl	80044ba <_Balloc>
 8003b66:	6a63      	ldr	r3, [r4, #36]	; 0x24
 8003b68:	6030      	str	r0, [r6, #0]
 8003b6a:	f1b9 0f0e 	cmp.w	r9, #14
 8003b6e:	f8d3 b000 	ldr.w	fp, [r3]
 8003b72:	f200 80e6 	bhi.w	8003d42 <_dtoa_r+0x43a>
 8003b76:	2d00      	cmp	r5, #0
 8003b78:	f000 80e3 	beq.w	8003d42 <_dtoa_r+0x43a>
 8003b7c:	ed9d 7b00 	vldr	d7, [sp]
 8003b80:	f1ba 0f00 	cmp.w	sl, #0
 8003b84:	ed8d 7b10 	vstr	d7, [sp, #64]	; 0x40
 8003b88:	dd74      	ble.n	8003c74 <_dtoa_r+0x36c>
 8003b8a:	4a2a      	ldr	r2, [pc, #168]	; (8003c34 <_dtoa_r+0x32c>)
 8003b8c:	f00a 030f 	and.w	r3, sl, #15
 8003b90:	eb02 03c3 	add.w	r3, r2, r3, lsl #3
 8003b94:	ed93 7b00 	vldr	d7, [r3]
 8003b98:	ea4f 162a 	mov.w	r6, sl, asr #4
 8003b9c:	06f0      	lsls	r0, r6, #27
 8003b9e:	ed8d 7b08 	vstr	d7, [sp, #32]
 8003ba2:	d565      	bpl.n	8003c70 <_dtoa_r+0x368>
 8003ba4:	4b24      	ldr	r3, [pc, #144]	; (8003c38 <_dtoa_r+0x330>)
 8003ba6:	e9dd 0110 	ldrd	r0, r1, [sp, #64]	; 0x40
 8003baa:	e9d3 2308 	ldrd	r2, r3, [r3, #32]
 8003bae:	f7fc fe01 	bl	80007b4 <__aeabi_ddiv>
 8003bb2:	e9cd 0100 	strd	r0, r1, [sp]
 8003bb6:	f006 060f 	and.w	r6, r6, #15
 8003bba:	2503      	movs	r5, #3
 8003bbc:	4f1e      	ldr	r7, [pc, #120]	; (8003c38 <_dtoa_r+0x330>)
 8003bbe:	e04c      	b.n	8003c5a <_dtoa_r+0x352>
 8003bc0:	2301      	movs	r3, #1
 8003bc2:	930a      	str	r3, [sp, #40]	; 0x28
 8003bc4:	9b0b      	ldr	r3, [sp, #44]	; 0x2c
 8003bc6:	4453      	add	r3, sl
 8003bc8:	f103 0901 	add.w	r9, r3, #1
 8003bcc:	9302      	str	r3, [sp, #8]
 8003bce:	464b      	mov	r3, r9
 8003bd0:	2b01      	cmp	r3, #1
 8003bd2:	bfb8      	it	lt
 8003bd4:	2301      	movlt	r3, #1
 8003bd6:	e7ba      	b.n	8003b4e <_dtoa_r+0x246>
 8003bd8:	2300      	movs	r3, #0
 8003bda:	e7b2      	b.n	8003b42 <_dtoa_r+0x23a>
 8003bdc:	2300      	movs	r3, #0
 8003bde:	e7f0      	b.n	8003bc2 <_dtoa_r+0x2ba>
 8003be0:	2501      	movs	r5, #1
 8003be2:	2300      	movs	r3, #0
 8003be4:	9306      	str	r3, [sp, #24]
 8003be6:	950a      	str	r5, [sp, #40]	; 0x28
 8003be8:	f04f 33ff 	mov.w	r3, #4294967295
 8003bec:	9302      	str	r3, [sp, #8]
 8003bee:	4699      	mov	r9, r3
 8003bf0:	2200      	movs	r2, #0
 8003bf2:	2312      	movs	r3, #18
 8003bf4:	920b      	str	r2, [sp, #44]	; 0x2c
 8003bf6:	e7aa      	b.n	8003b4e <_dtoa_r+0x246>
 8003bf8:	2301      	movs	r3, #1
 8003bfa:	930a      	str	r3, [sp, #40]	; 0x28
 8003bfc:	e7f4      	b.n	8003be8 <_dtoa_r+0x2e0>
 8003bfe:	2301      	movs	r3, #1
 8003c00:	9302      	str	r3, [sp, #8]
 8003c02:	4699      	mov	r9, r3
 8003c04:	461a      	mov	r2, r3
 8003c06:	e7f5      	b.n	8003bf4 <_dtoa_r+0x2ec>
 8003c08:	3101      	adds	r1, #1
 8003c0a:	6071      	str	r1, [r6, #4]
 8003c0c:	0052      	lsls	r2, r2, #1
 8003c0e:	e7a2      	b.n	8003b56 <_dtoa_r+0x24e>
 8003c10:	636f4361 	.word	0x636f4361
 8003c14:	3fd287a7 	.word	0x3fd287a7
 8003c18:	8b60c8b3 	.word	0x8b60c8b3
 8003c1c:	3fc68a28 	.word	0x3fc68a28
 8003c20:	509f79fb 	.word	0x509f79fb
 8003c24:	3fd34413 	.word	0x3fd34413
 8003c28:	7ff00000 	.word	0x7ff00000
 8003c2c:	08004be9 	.word	0x08004be9
 8003c30:	3ff80000 	.word	0x3ff80000
 8003c34:	08004c20 	.word	0x08004c20
 8003c38:	08004bf8 	.word	0x08004bf8
 8003c3c:	08004bf3 	.word	0x08004bf3
 8003c40:	07f1      	lsls	r1, r6, #31
 8003c42:	d508      	bpl.n	8003c56 <_dtoa_r+0x34e>
 8003c44:	e9dd 0108 	ldrd	r0, r1, [sp, #32]
 8003c48:	e9d7 2300 	ldrd	r2, r3, [r7]
 8003c4c:	f7fc fc88 	bl	8000560 <__aeabi_dmul>
 8003c50:	e9cd 0108 	strd	r0, r1, [sp, #32]
 8003c54:	3501      	adds	r5, #1
 8003c56:	1076      	asrs	r6, r6, #1
 8003c58:	3708      	adds	r7, #8
 8003c5a:	2e00      	cmp	r6, #0
 8003c5c:	d1f0      	bne.n	8003c40 <_dtoa_r+0x338>
 8003c5e:	e9dd 2308 	ldrd	r2, r3, [sp, #32]
 8003c62:	e9dd 0100 	ldrd	r0, r1, [sp]
 8003c66:	f7fc fda5 	bl	80007b4 <__aeabi_ddiv>
 8003c6a:	e9cd 0100 	strd	r0, r1, [sp]
 8003c6e:	e01a      	b.n	8003ca6 <_dtoa_r+0x39e>
 8003c70:	2502      	movs	r5, #2
 8003c72:	e7a3      	b.n	8003bbc <_dtoa_r+0x2b4>
 8003c74:	f000 80a0 	beq.w	8003db8 <_dtoa_r+0x4b0>
 8003c78:	f1ca 0600 	rsb	r6, sl, #0
 8003c7c:	4b9f      	ldr	r3, [pc, #636]	; (8003efc <_dtoa_r+0x5f4>)
 8003c7e:	4fa0      	ldr	r7, [pc, #640]	; (8003f00 <_dtoa_r+0x5f8>)
 8003c80:	f006 020f 	and.w	r2, r6, #15
 8003c84:	eb03 03c2 	add.w	r3, r3, r2, lsl #3
 8003c88:	e9d3 2300 	ldrd	r2, r3, [r3]
 8003c8c:	e9dd 0110 	ldrd	r0, r1, [sp, #64]	; 0x40
 8003c90:	f7fc fc66 	bl	8000560 <__aeabi_dmul>
 8003c94:	e9cd 0100 	strd	r0, r1, [sp]
 8003c98:	1136      	asrs	r6, r6, #4
 8003c9a:	2300      	movs	r3, #0
 8003c9c:	2502      	movs	r5, #2
 8003c9e:	2e00      	cmp	r6, #0
 8003ca0:	d17f      	bne.n	8003da2 <_dtoa_r+0x49a>
 8003ca2:	2b00      	cmp	r3, #0
 8003ca4:	d1e1      	bne.n	8003c6a <_dtoa_r+0x362>
 8003ca6:	9b0f      	ldr	r3, [sp, #60]	; 0x3c
 8003ca8:	2b00      	cmp	r3, #0
 8003caa:	f000 8087 	beq.w	8003dbc <_dtoa_r+0x4b4>
 8003cae:	e9dd 6700 	ldrd	r6, r7, [sp]
 8003cb2:	2200      	movs	r2, #0
 8003cb4:	4b93      	ldr	r3, [pc, #588]	; (8003f04 <_dtoa_r+0x5fc>)
 8003cb6:	4630      	mov	r0, r6
 8003cb8:	4639      	mov	r1, r7
 8003cba:	f7fc fec3 	bl	8000a44 <__aeabi_dcmplt>
 8003cbe:	2800      	cmp	r0, #0
 8003cc0:	d07c      	beq.n	8003dbc <_dtoa_r+0x4b4>
 8003cc2:	f1b9 0f00 	cmp.w	r9, #0
 8003cc6:	d079      	beq.n	8003dbc <_dtoa_r+0x4b4>
 8003cc8:	9b02      	ldr	r3, [sp, #8]
 8003cca:	2b00      	cmp	r3, #0
 8003ccc:	dd35      	ble.n	8003d3a <_dtoa_r+0x432>
 8003cce:	f10a 33ff 	add.w	r3, sl, #4294967295
 8003cd2:	9308      	str	r3, [sp, #32]
 8003cd4:	4639      	mov	r1, r7
 8003cd6:	2200      	movs	r2, #0
 8003cd8:	4b8b      	ldr	r3, [pc, #556]	; (8003f08 <_dtoa_r+0x600>)
 8003cda:	4630      	mov	r0, r6
 8003cdc:	f7fc fc40 	bl	8000560 <__aeabi_dmul>
 8003ce0:	e9cd 0100 	strd	r0, r1, [sp]
 8003ce4:	9f02      	ldr	r7, [sp, #8]
 8003ce6:	3501      	adds	r5, #1
 8003ce8:	4628      	mov	r0, r5
 8003cea:	f7fc fbcf 	bl	800048c <__aeabi_i2d>
 8003cee:	e9dd 2300 	ldrd	r2, r3, [sp]
 8003cf2:	f7fc fc35 	bl	8000560 <__aeabi_dmul>
 8003cf6:	2200      	movs	r2, #0
 8003cf8:	4b84      	ldr	r3, [pc, #528]	; (8003f0c <_dtoa_r+0x604>)
 8003cfa:	f7fc fa7b 	bl	80001f4 <__adddf3>
 8003cfe:	4605      	mov	r5, r0
 8003d00:	f1a1 7650 	sub.w	r6, r1, #54525952	; 0x3400000
 8003d04:	2f00      	cmp	r7, #0
 8003d06:	d15d      	bne.n	8003dc4 <_dtoa_r+0x4bc>
 8003d08:	2200      	movs	r2, #0
 8003d0a:	4b81      	ldr	r3, [pc, #516]	; (8003f10 <_dtoa_r+0x608>)
 8003d0c:	e9dd 0100 	ldrd	r0, r1, [sp]
 8003d10:	f7fc fa6e 	bl	80001f0 <__aeabi_dsub>
 8003d14:	462a      	mov	r2, r5
 8003d16:	4633      	mov	r3, r6
 8003d18:	e9cd 0100 	strd	r0, r1, [sp]
 8003d1c:	f7fc feb0 	bl	8000a80 <__aeabi_dcmpgt>
 8003d20:	2800      	cmp	r0, #0
 8003d22:	f040 8288 	bne.w	8004236 <_dtoa_r+0x92e>
 8003d26:	462a      	mov	r2, r5
 8003d28:	f106 4300 	add.w	r3, r6, #2147483648	; 0x80000000
 8003d2c:	e9dd 0100 	ldrd	r0, r1, [sp]
 8003d30:	f7fc fe88 	bl	8000a44 <__aeabi_dcmplt>
 8003d34:	2800      	cmp	r0, #0
 8003d36:	f040 827c 	bne.w	8004232 <_dtoa_r+0x92a>
 8003d3a:	e9dd 2310 	ldrd	r2, r3, [sp, #64]	; 0x40
 8003d3e:	e9cd 2300 	strd	r2, r3, [sp]
 8003d42:	9b15      	ldr	r3, [sp, #84]	; 0x54
 8003d44:	2b00      	cmp	r3, #0
 8003d46:	f2c0 8150 	blt.w	8003fea <_dtoa_r+0x6e2>
 8003d4a:	f1ba 0f0e 	cmp.w	sl, #14
 8003d4e:	f300 814c 	bgt.w	8003fea <_dtoa_r+0x6e2>
 8003d52:	4b6a      	ldr	r3, [pc, #424]	; (8003efc <_dtoa_r+0x5f4>)
 8003d54:	eb03 03ca 	add.w	r3, r3, sl, lsl #3
 8003d58:	ed93 7b00 	vldr	d7, [r3]
 8003d5c:	9b0b      	ldr	r3, [sp, #44]	; 0x2c
 8003d5e:	2b00      	cmp	r3, #0
 8003d60:	ed8d 7b02 	vstr	d7, [sp, #8]
 8003d64:	f280 80d8 	bge.w	8003f18 <_dtoa_r+0x610>
 8003d68:	f1b9 0f00 	cmp.w	r9, #0
 8003d6c:	f300 80d4 	bgt.w	8003f18 <_dtoa_r+0x610>
 8003d70:	f040 825e 	bne.w	8004230 <_dtoa_r+0x928>
 8003d74:	2200      	movs	r2, #0
 8003d76:	4b66      	ldr	r3, [pc, #408]	; (8003f10 <_dtoa_r+0x608>)
 8003d78:	ec51 0b17 	vmov	r0, r1, d7
 8003d7c:	f7fc fbf0 	bl	8000560 <__aeabi_dmul>
 8003d80:	e9dd 2300 	ldrd	r2, r3, [sp]
 8003d84:	f7fc fe72 	bl	8000a6c <__aeabi_dcmpge>
 8003d88:	464f      	mov	r7, r9
 8003d8a:	464e      	mov	r6, r9
 8003d8c:	2800      	cmp	r0, #0
 8003d8e:	f040 8234 	bne.w	80041fa <_dtoa_r+0x8f2>
 8003d92:	2331      	movs	r3, #49	; 0x31
 8003d94:	f10b 0501 	add.w	r5, fp, #1
 8003d98:	f88b 3000 	strb.w	r3, [fp]
 8003d9c:	f10a 0a01 	add.w	sl, sl, #1
 8003da0:	e22f      	b.n	8004202 <_dtoa_r+0x8fa>
 8003da2:	07f2      	lsls	r2, r6, #31
 8003da4:	d505      	bpl.n	8003db2 <_dtoa_r+0x4aa>
 8003da6:	e9d7 2300 	ldrd	r2, r3, [r7]
 8003daa:	f7fc fbd9 	bl	8000560 <__aeabi_dmul>
 8003dae:	3501      	adds	r5, #1
 8003db0:	2301      	movs	r3, #1
 8003db2:	1076      	asrs	r6, r6, #1
 8003db4:	3708      	adds	r7, #8
 8003db6:	e772      	b.n	8003c9e <_dtoa_r+0x396>
 8003db8:	2502      	movs	r5, #2
 8003dba:	e774      	b.n	8003ca6 <_dtoa_r+0x39e>
 8003dbc:	f8cd a020 	str.w	sl, [sp, #32]
 8003dc0:	464f      	mov	r7, r9
 8003dc2:	e791      	b.n	8003ce8 <_dtoa_r+0x3e0>
 8003dc4:	4b4d      	ldr	r3, [pc, #308]	; (8003efc <_dtoa_r+0x5f4>)
 8003dc6:	eb03 03c7 	add.w	r3, r3, r7, lsl #3
 8003dca:	e953 0102 	ldrd	r0, r1, [r3, #-8]
 8003dce:	9b0a      	ldr	r3, [sp, #40]	; 0x28
 8003dd0:	2b00      	cmp	r3, #0
 8003dd2:	d047      	beq.n	8003e64 <_dtoa_r+0x55c>
 8003dd4:	4602      	mov	r2, r0
 8003dd6:	460b      	mov	r3, r1
 8003dd8:	2000      	movs	r0, #0
 8003dda:	494e      	ldr	r1, [pc, #312]	; (8003f14 <_dtoa_r+0x60c>)
 8003ddc:	f7fc fcea 	bl	80007b4 <__aeabi_ddiv>
 8003de0:	462a      	mov	r2, r5
 8003de2:	4633      	mov	r3, r6
 8003de4:	f7fc fa04 	bl	80001f0 <__aeabi_dsub>
 8003de8:	e9cd 010c 	strd	r0, r1, [sp, #48]	; 0x30
 8003dec:	465d      	mov	r5, fp
 8003dee:	e9dd 0100 	ldrd	r0, r1, [sp]
 8003df2:	f7fc fe65 	bl	8000ac0 <__aeabi_d2iz>
 8003df6:	4606      	mov	r6, r0
 8003df8:	f7fc fb48 	bl	800048c <__aeabi_i2d>
 8003dfc:	4602      	mov	r2, r0
 8003dfe:	460b      	mov	r3, r1
 8003e00:	e9dd 0100 	ldrd	r0, r1, [sp]
 8003e04:	f7fc f9f4 	bl	80001f0 <__aeabi_dsub>
 8003e08:	3630      	adds	r6, #48	; 0x30
 8003e0a:	f805 6b01 	strb.w	r6, [r5], #1
 8003e0e:	e9dd 230c 	ldrd	r2, r3, [sp, #48]	; 0x30
 8003e12:	e9cd 0100 	strd	r0, r1, [sp]
 8003e16:	f7fc fe15 	bl	8000a44 <__aeabi_dcmplt>
 8003e1a:	2800      	cmp	r0, #0
 8003e1c:	d163      	bne.n	8003ee6 <_dtoa_r+0x5de>
 8003e1e:	e9dd 2300 	ldrd	r2, r3, [sp]
 8003e22:	2000      	movs	r0, #0
 8003e24:	4937      	ldr	r1, [pc, #220]	; (8003f04 <_dtoa_r+0x5fc>)
 8003e26:	f7fc f9e3 	bl	80001f0 <__aeabi_dsub>
 8003e2a:	e9dd 230c 	ldrd	r2, r3, [sp, #48]	; 0x30
 8003e2e:	f7fc fe09 	bl	8000a44 <__aeabi_dcmplt>
 8003e32:	2800      	cmp	r0, #0
 8003e34:	f040 80b7 	bne.w	8003fa6 <_dtoa_r+0x69e>
 8003e38:	eba5 030b 	sub.w	r3, r5, fp
 8003e3c:	429f      	cmp	r7, r3
 8003e3e:	f77f af7c 	ble.w	8003d3a <_dtoa_r+0x432>
 8003e42:	2200      	movs	r2, #0
 8003e44:	4b30      	ldr	r3, [pc, #192]	; (8003f08 <_dtoa_r+0x600>)
 8003e46:	e9dd 010c 	ldrd	r0, r1, [sp, #48]	; 0x30
 8003e4a:	f7fc fb89 	bl	8000560 <__aeabi_dmul>
 8003e4e:	2200      	movs	r2, #0
 8003e50:	e9cd 010c 	strd	r0, r1, [sp, #48]	; 0x30
 8003e54:	4b2c      	ldr	r3, [pc, #176]	; (8003f08 <_dtoa_r+0x600>)
 8003e56:	e9dd 0100 	ldrd	r0, r1, [sp]
 8003e5a:	f7fc fb81 	bl	8000560 <__aeabi_dmul>
 8003e5e:	e9cd 0100 	strd	r0, r1, [sp]
 8003e62:	e7c4      	b.n	8003dee <_dtoa_r+0x4e6>
 8003e64:	462a      	mov	r2, r5
 8003e66:	4633      	mov	r3, r6
 8003e68:	f7fc fb7a 	bl	8000560 <__aeabi_dmul>
 8003e6c:	e9cd 010c 	strd	r0, r1, [sp, #48]	; 0x30
 8003e70:	eb0b 0507 	add.w	r5, fp, r7
 8003e74:	465e      	mov	r6, fp
 8003e76:	e9dd 0100 	ldrd	r0, r1, [sp]
 8003e7a:	f7fc fe21 	bl	8000ac0 <__aeabi_d2iz>
 8003e7e:	4607      	mov	r7, r0
 8003e80:	f7fc fb04 	bl	800048c <__aeabi_i2d>
 8003e84:	3730      	adds	r7, #48	; 0x30
 8003e86:	4602      	mov	r2, r0
 8003e88:	460b      	mov	r3, r1
 8003e8a:	e9dd 0100 	ldrd	r0, r1, [sp]
 8003e8e:	f7fc f9af 	bl	80001f0 <__aeabi_dsub>
 8003e92:	f806 7b01 	strb.w	r7, [r6], #1
 8003e96:	42ae      	cmp	r6, r5
 8003e98:	e9cd 0100 	strd	r0, r1, [sp]
 8003e9c:	f04f 0200 	mov.w	r2, #0
 8003ea0:	d126      	bne.n	8003ef0 <_dtoa_r+0x5e8>
 8003ea2:	4b1c      	ldr	r3, [pc, #112]	; (8003f14 <_dtoa_r+0x60c>)
 8003ea4:	e9dd 010c 	ldrd	r0, r1, [sp, #48]	; 0x30
 8003ea8:	f7fc f9a4 	bl	80001f4 <__adddf3>
 8003eac:	4602      	mov	r2, r0
 8003eae:	460b      	mov	r3, r1
 8003eb0:	e9dd 0100 	ldrd	r0, r1, [sp]
 8003eb4:	f7fc fde4 	bl	8000a80 <__aeabi_dcmpgt>
 8003eb8:	2800      	cmp	r0, #0
 8003eba:	d174      	bne.n	8003fa6 <_dtoa_r+0x69e>
 8003ebc:	e9dd 230c 	ldrd	r2, r3, [sp, #48]	; 0x30
 8003ec0:	2000      	movs	r0, #0
 8003ec2:	4914      	ldr	r1, [pc, #80]	; (8003f14 <_dtoa_r+0x60c>)
 8003ec4:	f7fc f994 	bl	80001f0 <__aeabi_dsub>
 8003ec8:	4602      	mov	r2, r0
 8003eca:	460b      	mov	r3, r1
 8003ecc:	e9dd 0100 	ldrd	r0, r1, [sp]
 8003ed0:	f7fc fdb8 	bl	8000a44 <__aeabi_dcmplt>
 8003ed4:	2800      	cmp	r0, #0
 8003ed6:	f43f af30 	beq.w	8003d3a <_dtoa_r+0x432>
 8003eda:	f815 3c01 	ldrb.w	r3, [r5, #-1]
 8003ede:	2b30      	cmp	r3, #48	; 0x30
 8003ee0:	f105 32ff 	add.w	r2, r5, #4294967295
 8003ee4:	d002      	beq.n	8003eec <_dtoa_r+0x5e4>
 8003ee6:	f8dd a020 	ldr.w	sl, [sp, #32]
 8003eea:	e04a      	b.n	8003f82 <_dtoa_r+0x67a>
 8003eec:	4615      	mov	r5, r2
 8003eee:	e7f4      	b.n	8003eda <_dtoa_r+0x5d2>
 8003ef0:	4b05      	ldr	r3, [pc, #20]	; (8003f08 <_dtoa_r+0x600>)
 8003ef2:	f7fc fb35 	bl	8000560 <__aeabi_dmul>
 8003ef6:	e9cd 0100 	strd	r0, r1, [sp]
 8003efa:	e7bc      	b.n	8003e76 <_dtoa_r+0x56e>
 8003efc:	08004c20 	.word	0x08004c20
 8003f00:	08004bf8 	.word	0x08004bf8
 8003f04:	3ff00000 	.word	0x3ff00000
 8003f08:	40240000 	.word	0x40240000
 8003f0c:	401c0000 	.word	0x401c0000
 8003f10:	40140000 	.word	0x40140000
 8003f14:	3fe00000 	.word	0x3fe00000
 8003f18:	e9dd 6700 	ldrd	r6, r7, [sp]
 8003f1c:	465d      	mov	r5, fp
 8003f1e:	e9dd 2302 	ldrd	r2, r3, [sp, #8]
 8003f22:	4630      	mov	r0, r6
 8003f24:	4639      	mov	r1, r7
 8003f26:	f7fc fc45 	bl	80007b4 <__aeabi_ddiv>
 8003f2a:	f7fc fdc9 	bl	8000ac0 <__aeabi_d2iz>
 8003f2e:	4680      	mov	r8, r0
 8003f30:	f7fc faac 	bl	800048c <__aeabi_i2d>
 8003f34:	e9dd 2302 	ldrd	r2, r3, [sp, #8]
 8003f38:	f7fc fb12 	bl	8000560 <__aeabi_dmul>
 8003f3c:	4602      	mov	r2, r0
 8003f3e:	460b      	mov	r3, r1
 8003f40:	4630      	mov	r0, r6
 8003f42:	4639      	mov	r1, r7
 8003f44:	f108 0630 	add.w	r6, r8, #48	; 0x30
 8003f48:	f7fc f952 	bl	80001f0 <__aeabi_dsub>
 8003f4c:	f805 6b01 	strb.w	r6, [r5], #1
 8003f50:	eba5 060b 	sub.w	r6, r5, fp
 8003f54:	45b1      	cmp	r9, r6
 8003f56:	4602      	mov	r2, r0
 8003f58:	460b      	mov	r3, r1
 8003f5a:	d139      	bne.n	8003fd0 <_dtoa_r+0x6c8>
 8003f5c:	f7fc f94a 	bl	80001f4 <__adddf3>
 8003f60:	e9dd 2302 	ldrd	r2, r3, [sp, #8]
 8003f64:	4606      	mov	r6, r0
 8003f66:	460f      	mov	r7, r1
 8003f68:	f7fc fd8a 	bl	8000a80 <__aeabi_dcmpgt>
 8003f6c:	b9c8      	cbnz	r0, 8003fa2 <_dtoa_r+0x69a>
 8003f6e:	e9dd 2302 	ldrd	r2, r3, [sp, #8]
 8003f72:	4630      	mov	r0, r6
 8003f74:	4639      	mov	r1, r7
 8003f76:	f7fc fd5b 	bl	8000a30 <__aeabi_dcmpeq>
 8003f7a:	b110      	cbz	r0, 8003f82 <_dtoa_r+0x67a>
 8003f7c:	f018 0f01 	tst.w	r8, #1
 8003f80:	d10f      	bne.n	8003fa2 <_dtoa_r+0x69a>
 8003f82:	9904      	ldr	r1, [sp, #16]
 8003f84:	4620      	mov	r0, r4
 8003f86:	f000 facc 	bl	8004522 <_Bfree>
 8003f8a:	2300      	movs	r3, #0
 8003f8c:	9a12      	ldr	r2, [sp, #72]	; 0x48
 8003f8e:	702b      	strb	r3, [r5, #0]
 8003f90:	f10a 0301 	add.w	r3, sl, #1
 8003f94:	6013      	str	r3, [r2, #0]
 8003f96:	9b21      	ldr	r3, [sp, #132]	; 0x84
 8003f98:	2b00      	cmp	r3, #0
 8003f9a:	f000 8241 	beq.w	8004420 <_dtoa_r+0xb18>
 8003f9e:	601d      	str	r5, [r3, #0]
 8003fa0:	e23e      	b.n	8004420 <_dtoa_r+0xb18>
 8003fa2:	f8cd a020 	str.w	sl, [sp, #32]
 8003fa6:	f815 2c01 	ldrb.w	r2, [r5, #-1]
 8003faa:	2a39      	cmp	r2, #57	; 0x39
 8003fac:	f105 33ff 	add.w	r3, r5, #4294967295
 8003fb0:	d108      	bne.n	8003fc4 <_dtoa_r+0x6bc>
 8003fb2:	459b      	cmp	fp, r3
 8003fb4:	d10a      	bne.n	8003fcc <_dtoa_r+0x6c4>
 8003fb6:	9b08      	ldr	r3, [sp, #32]
 8003fb8:	3301      	adds	r3, #1
 8003fba:	9308      	str	r3, [sp, #32]
 8003fbc:	2330      	movs	r3, #48	; 0x30
 8003fbe:	f88b 3000 	strb.w	r3, [fp]
 8003fc2:	465b      	mov	r3, fp
 8003fc4:	781a      	ldrb	r2, [r3, #0]
 8003fc6:	3201      	adds	r2, #1
 8003fc8:	701a      	strb	r2, [r3, #0]
 8003fca:	e78c      	b.n	8003ee6 <_dtoa_r+0x5de>
 8003fcc:	461d      	mov	r5, r3
 8003fce:	e7ea      	b.n	8003fa6 <_dtoa_r+0x69e>
 8003fd0:	2200      	movs	r2, #0
 8003fd2:	4b9b      	ldr	r3, [pc, #620]	; (8004240 <_dtoa_r+0x938>)
 8003fd4:	f7fc fac4 	bl	8000560 <__aeabi_dmul>
 8003fd8:	2200      	movs	r2, #0
 8003fda:	2300      	movs	r3, #0
 8003fdc:	4606      	mov	r6, r0
 8003fde:	460f      	mov	r7, r1
 8003fe0:	f7fc fd26 	bl	8000a30 <__aeabi_dcmpeq>
 8003fe4:	2800      	cmp	r0, #0
 8003fe6:	d09a      	beq.n	8003f1e <_dtoa_r+0x616>
 8003fe8:	e7cb      	b.n	8003f82 <_dtoa_r+0x67a>
 8003fea:	9a0a      	ldr	r2, [sp, #40]	; 0x28
 8003fec:	2a00      	cmp	r2, #0
 8003fee:	f000 808b 	beq.w	8004108 <_dtoa_r+0x800>
 8003ff2:	9a06      	ldr	r2, [sp, #24]
 8003ff4:	2a01      	cmp	r2, #1
 8003ff6:	dc6e      	bgt.n	80040d6 <_dtoa_r+0x7ce>
 8003ff8:	9a13      	ldr	r2, [sp, #76]	; 0x4c
 8003ffa:	2a00      	cmp	r2, #0
 8003ffc:	d067      	beq.n	80040ce <_dtoa_r+0x7c6>
 8003ffe:	f203 4333 	addw	r3, r3, #1075	; 0x433
 8004002:	9f07      	ldr	r7, [sp, #28]
 8004004:	9d05      	ldr	r5, [sp, #20]
 8004006:	9a05      	ldr	r2, [sp, #20]
 8004008:	2101      	movs	r1, #1
 800400a:	441a      	add	r2, r3
 800400c:	4620      	mov	r0, r4
 800400e:	9205      	str	r2, [sp, #20]
 8004010:	4498      	add	r8, r3
 8004012:	f000 fb26 	bl	8004662 <__i2b>
 8004016:	4606      	mov	r6, r0
 8004018:	2d00      	cmp	r5, #0
 800401a:	dd0c      	ble.n	8004036 <_dtoa_r+0x72e>
 800401c:	f1b8 0f00 	cmp.w	r8, #0
 8004020:	dd09      	ble.n	8004036 <_dtoa_r+0x72e>
 8004022:	4545      	cmp	r5, r8
 8004024:	9a05      	ldr	r2, [sp, #20]
 8004026:	462b      	mov	r3, r5
 8004028:	bfa8      	it	ge
 800402a:	4643      	movge	r3, r8
 800402c:	1ad2      	subs	r2, r2, r3
 800402e:	9205      	str	r2, [sp, #20]
 8004030:	1aed      	subs	r5, r5, r3
 8004032:	eba8 0803 	sub.w	r8, r8, r3
 8004036:	9b07      	ldr	r3, [sp, #28]
 8004038:	b1eb      	cbz	r3, 8004076 <_dtoa_r+0x76e>
 800403a:	9b0a      	ldr	r3, [sp, #40]	; 0x28
 800403c:	2b00      	cmp	r3, #0
 800403e:	d067      	beq.n	8004110 <_dtoa_r+0x808>
 8004040:	b18f      	cbz	r7, 8004066 <_dtoa_r+0x75e>
 8004042:	4631      	mov	r1, r6
 8004044:	463a      	mov	r2, r7
 8004046:	4620      	mov	r0, r4
 8004048:	f000 fbaa 	bl	80047a0 <__pow5mult>
 800404c:	9a04      	ldr	r2, [sp, #16]
 800404e:	4601      	mov	r1, r0
 8004050:	4606      	mov	r6, r0
 8004052:	4620      	mov	r0, r4
 8004054:	f000 fb0e 	bl	8004674 <__multiply>
 8004058:	9904      	ldr	r1, [sp, #16]
 800405a:	9008      	str	r0, [sp, #32]
 800405c:	4620      	mov	r0, r4
 800405e:	f000 fa60 	bl	8004522 <_Bfree>
 8004062:	9b08      	ldr	r3, [sp, #32]
 8004064:	9304      	str	r3, [sp, #16]
 8004066:	9b07      	ldr	r3, [sp, #28]
 8004068:	1bda      	subs	r2, r3, r7
 800406a:	d004      	beq.n	8004076 <_dtoa_r+0x76e>
 800406c:	9904      	ldr	r1, [sp, #16]
 800406e:	4620      	mov	r0, r4
 8004070:	f000 fb96 	bl	80047a0 <__pow5mult>
 8004074:	9004      	str	r0, [sp, #16]
 8004076:	2101      	movs	r1, #1
 8004078:	4620      	mov	r0, r4
 800407a:	f000 faf2 	bl	8004662 <__i2b>
 800407e:	9b0e      	ldr	r3, [sp, #56]	; 0x38
 8004080:	4607      	mov	r7, r0
 8004082:	2b00      	cmp	r3, #0
 8004084:	f000 81d0 	beq.w	8004428 <_dtoa_r+0xb20>
 8004088:	461a      	mov	r2, r3
 800408a:	4601      	mov	r1, r0
 800408c:	4620      	mov	r0, r4
 800408e:	f000 fb87 	bl	80047a0 <__pow5mult>
 8004092:	9b06      	ldr	r3, [sp, #24]
 8004094:	2b01      	cmp	r3, #1
 8004096:	4607      	mov	r7, r0
 8004098:	dc40      	bgt.n	800411c <_dtoa_r+0x814>
 800409a:	9b00      	ldr	r3, [sp, #0]
 800409c:	2b00      	cmp	r3, #0
 800409e:	d139      	bne.n	8004114 <_dtoa_r+0x80c>
 80040a0:	9b01      	ldr	r3, [sp, #4]
 80040a2:	f3c3 0313 	ubfx	r3, r3, #0, #20
 80040a6:	2b00      	cmp	r3, #0
 80040a8:	d136      	bne.n	8004118 <_dtoa_r+0x810>
 80040aa:	9b01      	ldr	r3, [sp, #4]
 80040ac:	f023 4300 	bic.w	r3, r3, #2147483648	; 0x80000000
 80040b0:	0d1b      	lsrs	r3, r3, #20
 80040b2:	051b      	lsls	r3, r3, #20
 80040b4:	b12b      	cbz	r3, 80040c2 <_dtoa_r+0x7ba>
 80040b6:	9b05      	ldr	r3, [sp, #20]
 80040b8:	3301      	adds	r3, #1
 80040ba:	9305      	str	r3, [sp, #20]
 80040bc:	f108 0801 	add.w	r8, r8, #1
 80040c0:	2301      	movs	r3, #1
 80040c2:	9307      	str	r3, [sp, #28]
 80040c4:	9b0e      	ldr	r3, [sp, #56]	; 0x38
 80040c6:	2b00      	cmp	r3, #0
 80040c8:	d12a      	bne.n	8004120 <_dtoa_r+0x818>
 80040ca:	2001      	movs	r0, #1
 80040cc:	e030      	b.n	8004130 <_dtoa_r+0x828>
 80040ce:	9b14      	ldr	r3, [sp, #80]	; 0x50
 80040d0:	f1c3 0336 	rsb	r3, r3, #54	; 0x36
 80040d4:	e795      	b.n	8004002 <_dtoa_r+0x6fa>
 80040d6:	9b07      	ldr	r3, [sp, #28]
 80040d8:	f109 37ff 	add.w	r7, r9, #4294967295
 80040dc:	42bb      	cmp	r3, r7
 80040de:	bfbf      	itttt	lt
 80040e0:	9b07      	ldrlt	r3, [sp, #28]
 80040e2:	9707      	strlt	r7, [sp, #28]
 80040e4:	1afa      	sublt	r2, r7, r3
 80040e6:	9b0e      	ldrlt	r3, [sp, #56]	; 0x38
 80040e8:	bfbb      	ittet	lt
 80040ea:	189b      	addlt	r3, r3, r2
 80040ec:	930e      	strlt	r3, [sp, #56]	; 0x38
 80040ee:	1bdf      	subge	r7, r3, r7
 80040f0:	2700      	movlt	r7, #0
 80040f2:	f1b9 0f00 	cmp.w	r9, #0
 80040f6:	bfb5      	itete	lt
 80040f8:	9b05      	ldrlt	r3, [sp, #20]
 80040fa:	9d05      	ldrge	r5, [sp, #20]
 80040fc:	eba3 0509 	sublt.w	r5, r3, r9
 8004100:	464b      	movge	r3, r9
 8004102:	bfb8      	it	lt
 8004104:	2300      	movlt	r3, #0
 8004106:	e77e      	b.n	8004006 <_dtoa_r+0x6fe>
 8004108:	9f07      	ldr	r7, [sp, #28]
 800410a:	9d05      	ldr	r5, [sp, #20]
 800410c:	9e0a      	ldr	r6, [sp, #40]	; 0x28
 800410e:	e783      	b.n	8004018 <_dtoa_r+0x710>
 8004110:	9a07      	ldr	r2, [sp, #28]
 8004112:	e7ab      	b.n	800406c <_dtoa_r+0x764>
 8004114:	2300      	movs	r3, #0
 8004116:	e7d4      	b.n	80040c2 <_dtoa_r+0x7ba>
 8004118:	9b00      	ldr	r3, [sp, #0]
 800411a:	e7d2      	b.n	80040c2 <_dtoa_r+0x7ba>
 800411c:	2300      	movs	r3, #0
 800411e:	9307      	str	r3, [sp, #28]
 8004120:	693b      	ldr	r3, [r7, #16]
 8004122:	eb07 0383 	add.w	r3, r7, r3, lsl #2
 8004126:	6918      	ldr	r0, [r3, #16]
 8004128:	f000 fa4d 	bl	80045c6 <__hi0bits>
 800412c:	f1c0 0020 	rsb	r0, r0, #32
 8004130:	4440      	add	r0, r8
 8004132:	f010 001f 	ands.w	r0, r0, #31
 8004136:	d047      	beq.n	80041c8 <_dtoa_r+0x8c0>
 8004138:	f1c0 0320 	rsb	r3, r0, #32
 800413c:	2b04      	cmp	r3, #4
 800413e:	dd3b      	ble.n	80041b8 <_dtoa_r+0x8b0>
 8004140:	9b05      	ldr	r3, [sp, #20]
 8004142:	f1c0 001c 	rsb	r0, r0, #28
 8004146:	4403      	add	r3, r0
 8004148:	9305      	str	r3, [sp, #20]
 800414a:	4405      	add	r5, r0
 800414c:	4480      	add	r8, r0
 800414e:	9b05      	ldr	r3, [sp, #20]
 8004150:	2b00      	cmp	r3, #0
 8004152:	dd05      	ble.n	8004160 <_dtoa_r+0x858>
 8004154:	461a      	mov	r2, r3
 8004156:	9904      	ldr	r1, [sp, #16]
 8004158:	4620      	mov	r0, r4
 800415a:	f000 fb6f 	bl	800483c <__lshift>
 800415e:	9004      	str	r0, [sp, #16]
 8004160:	f1b8 0f00 	cmp.w	r8, #0
 8004164:	dd05      	ble.n	8004172 <_dtoa_r+0x86a>
 8004166:	4639      	mov	r1, r7
 8004168:	4642      	mov	r2, r8
 800416a:	4620      	mov	r0, r4
 800416c:	f000 fb66 	bl	800483c <__lshift>
 8004170:	4607      	mov	r7, r0
 8004172:	9b0f      	ldr	r3, [sp, #60]	; 0x3c
 8004174:	b353      	cbz	r3, 80041cc <_dtoa_r+0x8c4>
 8004176:	4639      	mov	r1, r7
 8004178:	9804      	ldr	r0, [sp, #16]
 800417a:	f000 fbb3 	bl	80048e4 <__mcmp>
 800417e:	2800      	cmp	r0, #0
 8004180:	da24      	bge.n	80041cc <_dtoa_r+0x8c4>
 8004182:	2300      	movs	r3, #0
 8004184:	220a      	movs	r2, #10
 8004186:	9904      	ldr	r1, [sp, #16]
 8004188:	4620      	mov	r0, r4
 800418a:	f000 f9e1 	bl	8004550 <__multadd>
 800418e:	9b0a      	ldr	r3, [sp, #40]	; 0x28
 8004190:	9004      	str	r0, [sp, #16]
 8004192:	f10a 3aff 	add.w	sl, sl, #4294967295
 8004196:	2b00      	cmp	r3, #0
 8004198:	f000 814d 	beq.w	8004436 <_dtoa_r+0xb2e>
 800419c:	2300      	movs	r3, #0
 800419e:	4631      	mov	r1, r6
 80041a0:	220a      	movs	r2, #10
 80041a2:	4620      	mov	r0, r4
 80041a4:	f000 f9d4 	bl	8004550 <__multadd>
 80041a8:	9b02      	ldr	r3, [sp, #8]
 80041aa:	2b00      	cmp	r3, #0
 80041ac:	4606      	mov	r6, r0
 80041ae:	dc4f      	bgt.n	8004250 <_dtoa_r+0x948>
 80041b0:	9b06      	ldr	r3, [sp, #24]
 80041b2:	2b02      	cmp	r3, #2
 80041b4:	dd4c      	ble.n	8004250 <_dtoa_r+0x948>
 80041b6:	e011      	b.n	80041dc <_dtoa_r+0x8d4>
 80041b8:	d0c9      	beq.n	800414e <_dtoa_r+0x846>
 80041ba:	9a05      	ldr	r2, [sp, #20]
 80041bc:	331c      	adds	r3, #28
 80041be:	441a      	add	r2, r3
 80041c0:	9205      	str	r2, [sp, #20]
 80041c2:	441d      	add	r5, r3
 80041c4:	4498      	add	r8, r3
 80041c6:	e7c2      	b.n	800414e <_dtoa_r+0x846>
 80041c8:	4603      	mov	r3, r0
 80041ca:	e7f6      	b.n	80041ba <_dtoa_r+0x8b2>
 80041cc:	f1b9 0f00 	cmp.w	r9, #0
 80041d0:	dc38      	bgt.n	8004244 <_dtoa_r+0x93c>
 80041d2:	9b06      	ldr	r3, [sp, #24]
 80041d4:	2b02      	cmp	r3, #2
 80041d6:	dd35      	ble.n	8004244 <_dtoa_r+0x93c>
 80041d8:	f8cd 9008 	str.w	r9, [sp, #8]
 80041dc:	9b02      	ldr	r3, [sp, #8]
 80041de:	b963      	cbnz	r3, 80041fa <_dtoa_r+0x8f2>
 80041e0:	4639      	mov	r1, r7
 80041e2:	2205      	movs	r2, #5
 80041e4:	4620      	mov	r0, r4
 80041e6:	f000 f9b3 	bl	8004550 <__multadd>
 80041ea:	4601      	mov	r1, r0
 80041ec:	4607      	mov	r7, r0
 80041ee:	9804      	ldr	r0, [sp, #16]
 80041f0:	f000 fb78 	bl	80048e4 <__mcmp>
 80041f4:	2800      	cmp	r0, #0
 80041f6:	f73f adcc 	bgt.w	8003d92 <_dtoa_r+0x48a>
 80041fa:	9b0b      	ldr	r3, [sp, #44]	; 0x2c
 80041fc:	465d      	mov	r5, fp
 80041fe:	ea6f 0a03 	mvn.w	sl, r3
 8004202:	f04f 0900 	mov.w	r9, #0
 8004206:	4639      	mov	r1, r7
 8004208:	4620      	mov	r0, r4
 800420a:	f000 f98a 	bl	8004522 <_Bfree>
 800420e:	2e00      	cmp	r6, #0
 8004210:	f43f aeb7 	beq.w	8003f82 <_dtoa_r+0x67a>
 8004214:	f1b9 0f00 	cmp.w	r9, #0
 8004218:	d005      	beq.n	8004226 <_dtoa_r+0x91e>
 800421a:	45b1      	cmp	r9, r6
 800421c:	d003      	beq.n	8004226 <_dtoa_r+0x91e>
 800421e:	4649      	mov	r1, r9
 8004220:	4620      	mov	r0, r4
 8004222:	f000 f97e 	bl	8004522 <_Bfree>
 8004226:	4631      	mov	r1, r6
 8004228:	4620      	mov	r0, r4
 800422a:	f000 f97a 	bl	8004522 <_Bfree>
 800422e:	e6a8      	b.n	8003f82 <_dtoa_r+0x67a>
 8004230:	2700      	movs	r7, #0
 8004232:	463e      	mov	r6, r7
 8004234:	e7e1      	b.n	80041fa <_dtoa_r+0x8f2>
 8004236:	f8dd a020 	ldr.w	sl, [sp, #32]
 800423a:	463e      	mov	r6, r7
 800423c:	e5a9      	b.n	8003d92 <_dtoa_r+0x48a>
 800423e:	bf00      	nop
 8004240:	40240000 	.word	0x40240000
 8004244:	9b0a      	ldr	r3, [sp, #40]	; 0x28
 8004246:	f8cd 9008 	str.w	r9, [sp, #8]
 800424a:	2b00      	cmp	r3, #0
 800424c:	f000 80fa 	beq.w	8004444 <_dtoa_r+0xb3c>
 8004250:	2d00      	cmp	r5, #0
 8004252:	dd05      	ble.n	8004260 <_dtoa_r+0x958>
 8004254:	4631      	mov	r1, r6
 8004256:	462a      	mov	r2, r5
 8004258:	4620      	mov	r0, r4
 800425a:	f000 faef 	bl	800483c <__lshift>
 800425e:	4606      	mov	r6, r0
 8004260:	9b07      	ldr	r3, [sp, #28]
 8004262:	2b00      	cmp	r3, #0
 8004264:	d04c      	beq.n	8004300 <_dtoa_r+0x9f8>
 8004266:	6871      	ldr	r1, [r6, #4]
 8004268:	4620      	mov	r0, r4
 800426a:	f000 f926 	bl	80044ba <_Balloc>
 800426e:	6932      	ldr	r2, [r6, #16]
 8004270:	3202      	adds	r2, #2
 8004272:	4605      	mov	r5, r0
 8004274:	0092      	lsls	r2, r2, #2
 8004276:	f106 010c 	add.w	r1, r6, #12
 800427a:	300c      	adds	r0, #12
 800427c:	f000 f912 	bl	80044a4 <memcpy>
 8004280:	2201      	movs	r2, #1
 8004282:	4629      	mov	r1, r5
 8004284:	4620      	mov	r0, r4
 8004286:	f000 fad9 	bl	800483c <__lshift>
 800428a:	9b00      	ldr	r3, [sp, #0]
 800428c:	f8cd b014 	str.w	fp, [sp, #20]
 8004290:	f003 0301 	and.w	r3, r3, #1
 8004294:	46b1      	mov	r9, r6
 8004296:	9307      	str	r3, [sp, #28]
 8004298:	4606      	mov	r6, r0
 800429a:	4639      	mov	r1, r7
 800429c:	9804      	ldr	r0, [sp, #16]
 800429e:	f7ff faa4 	bl	80037ea <quorem>
 80042a2:	4649      	mov	r1, r9
 80042a4:	4605      	mov	r5, r0
 80042a6:	f100 0830 	add.w	r8, r0, #48	; 0x30
 80042aa:	9804      	ldr	r0, [sp, #16]
 80042ac:	f000 fb1a 	bl	80048e4 <__mcmp>
 80042b0:	4632      	mov	r2, r6
 80042b2:	9000      	str	r0, [sp, #0]
 80042b4:	4639      	mov	r1, r7
 80042b6:	4620      	mov	r0, r4
 80042b8:	f000 fb2e 	bl	8004918 <__mdiff>
 80042bc:	68c3      	ldr	r3, [r0, #12]
 80042be:	4602      	mov	r2, r0
 80042c0:	bb03      	cbnz	r3, 8004304 <_dtoa_r+0x9fc>
 80042c2:	4601      	mov	r1, r0
 80042c4:	9008      	str	r0, [sp, #32]
 80042c6:	9804      	ldr	r0, [sp, #16]
 80042c8:	f000 fb0c 	bl	80048e4 <__mcmp>
 80042cc:	9a08      	ldr	r2, [sp, #32]
 80042ce:	4603      	mov	r3, r0
 80042d0:	4611      	mov	r1, r2
 80042d2:	4620      	mov	r0, r4
 80042d4:	9308      	str	r3, [sp, #32]
 80042d6:	f000 f924 	bl	8004522 <_Bfree>
 80042da:	9b08      	ldr	r3, [sp, #32]
 80042dc:	b9a3      	cbnz	r3, 8004308 <_dtoa_r+0xa00>
 80042de:	9a06      	ldr	r2, [sp, #24]
 80042e0:	b992      	cbnz	r2, 8004308 <_dtoa_r+0xa00>
 80042e2:	9a07      	ldr	r2, [sp, #28]
 80042e4:	b982      	cbnz	r2, 8004308 <_dtoa_r+0xa00>
 80042e6:	f1b8 0f39 	cmp.w	r8, #57	; 0x39
 80042ea:	d029      	beq.n	8004340 <_dtoa_r+0xa38>
 80042ec:	9b00      	ldr	r3, [sp, #0]
 80042ee:	2b00      	cmp	r3, #0
 80042f0:	dd01      	ble.n	80042f6 <_dtoa_r+0x9ee>
 80042f2:	f105 0831 	add.w	r8, r5, #49	; 0x31
 80042f6:	9b05      	ldr	r3, [sp, #20]
 80042f8:	1c5d      	adds	r5, r3, #1
 80042fa:	f883 8000 	strb.w	r8, [r3]
 80042fe:	e782      	b.n	8004206 <_dtoa_r+0x8fe>
 8004300:	4630      	mov	r0, r6
 8004302:	e7c2      	b.n	800428a <_dtoa_r+0x982>
 8004304:	2301      	movs	r3, #1
 8004306:	e7e3      	b.n	80042d0 <_dtoa_r+0x9c8>
 8004308:	9a00      	ldr	r2, [sp, #0]
 800430a:	2a00      	cmp	r2, #0
 800430c:	db04      	blt.n	8004318 <_dtoa_r+0xa10>
 800430e:	d125      	bne.n	800435c <_dtoa_r+0xa54>
 8004310:	9a06      	ldr	r2, [sp, #24]
 8004312:	bb1a      	cbnz	r2, 800435c <_dtoa_r+0xa54>
 8004314:	9a07      	ldr	r2, [sp, #28]
 8004316:	bb0a      	cbnz	r2, 800435c <_dtoa_r+0xa54>
 8004318:	2b00      	cmp	r3, #0
 800431a:	ddec      	ble.n	80042f6 <_dtoa_r+0x9ee>
 800431c:	2201      	movs	r2, #1
 800431e:	9904      	ldr	r1, [sp, #16]
 8004320:	4620      	mov	r0, r4
 8004322:	f000 fa8b 	bl	800483c <__lshift>
 8004326:	4639      	mov	r1, r7
 8004328:	9004      	str	r0, [sp, #16]
 800432a:	f000 fadb 	bl	80048e4 <__mcmp>
 800432e:	2800      	cmp	r0, #0
 8004330:	dc03      	bgt.n	800433a <_dtoa_r+0xa32>
 8004332:	d1e0      	bne.n	80042f6 <_dtoa_r+0x9ee>
 8004334:	f018 0f01 	tst.w	r8, #1
 8004338:	d0dd      	beq.n	80042f6 <_dtoa_r+0x9ee>
 800433a:	f1b8 0f39 	cmp.w	r8, #57	; 0x39
 800433e:	d1d8      	bne.n	80042f2 <_dtoa_r+0x9ea>
 8004340:	9b05      	ldr	r3, [sp, #20]
 8004342:	9a05      	ldr	r2, [sp, #20]
 8004344:	1c5d      	adds	r5, r3, #1
 8004346:	2339      	movs	r3, #57	; 0x39
 8004348:	7013      	strb	r3, [r2, #0]
 800434a:	f815 3c01 	ldrb.w	r3, [r5, #-1]
 800434e:	2b39      	cmp	r3, #57	; 0x39
 8004350:	f105 32ff 	add.w	r2, r5, #4294967295
 8004354:	d04f      	beq.n	80043f6 <_dtoa_r+0xaee>
 8004356:	3301      	adds	r3, #1
 8004358:	7013      	strb	r3, [r2, #0]
 800435a:	e754      	b.n	8004206 <_dtoa_r+0x8fe>
 800435c:	9a05      	ldr	r2, [sp, #20]
 800435e:	2b00      	cmp	r3, #0
 8004360:	f102 0501 	add.w	r5, r2, #1
 8004364:	dd06      	ble.n	8004374 <_dtoa_r+0xa6c>
 8004366:	f1b8 0f39 	cmp.w	r8, #57	; 0x39
 800436a:	d0e9      	beq.n	8004340 <_dtoa_r+0xa38>
 800436c:	f108 0801 	add.w	r8, r8, #1
 8004370:	9b05      	ldr	r3, [sp, #20]
 8004372:	e7c2      	b.n	80042fa <_dtoa_r+0x9f2>
 8004374:	9a02      	ldr	r2, [sp, #8]
 8004376:	f805 8c01 	strb.w	r8, [r5, #-1]
 800437a:	eba5 030b 	sub.w	r3, r5, fp
 800437e:	4293      	cmp	r3, r2
 8004380:	d021      	beq.n	80043c6 <_dtoa_r+0xabe>
 8004382:	2300      	movs	r3, #0
 8004384:	220a      	movs	r2, #10
 8004386:	9904      	ldr	r1, [sp, #16]
 8004388:	4620      	mov	r0, r4
 800438a:	f000 f8e1 	bl	8004550 <__multadd>
 800438e:	45b1      	cmp	r9, r6
 8004390:	9004      	str	r0, [sp, #16]
 8004392:	f04f 0300 	mov.w	r3, #0
 8004396:	f04f 020a 	mov.w	r2, #10
 800439a:	4649      	mov	r1, r9
 800439c:	4620      	mov	r0, r4
 800439e:	d105      	bne.n	80043ac <_dtoa_r+0xaa4>
 80043a0:	f000 f8d6 	bl	8004550 <__multadd>
 80043a4:	4681      	mov	r9, r0
 80043a6:	4606      	mov	r6, r0
 80043a8:	9505      	str	r5, [sp, #20]
 80043aa:	e776      	b.n	800429a <_dtoa_r+0x992>
 80043ac:	f000 f8d0 	bl	8004550 <__multadd>
 80043b0:	4631      	mov	r1, r6
 80043b2:	4681      	mov	r9, r0
 80043b4:	2300      	movs	r3, #0
 80043b6:	220a      	movs	r2, #10
 80043b8:	4620      	mov	r0, r4
 80043ba:	f000 f8c9 	bl	8004550 <__multadd>
 80043be:	4606      	mov	r6, r0
 80043c0:	e7f2      	b.n	80043a8 <_dtoa_r+0xaa0>
 80043c2:	f04f 0900 	mov.w	r9, #0
 80043c6:	2201      	movs	r2, #1
 80043c8:	9904      	ldr	r1, [sp, #16]
 80043ca:	4620      	mov	r0, r4
 80043cc:	f000 fa36 	bl	800483c <__lshift>
 80043d0:	4639      	mov	r1, r7
 80043d2:	9004      	str	r0, [sp, #16]
 80043d4:	f000 fa86 	bl	80048e4 <__mcmp>
 80043d8:	2800      	cmp	r0, #0
 80043da:	dcb6      	bgt.n	800434a <_dtoa_r+0xa42>
 80043dc:	d102      	bne.n	80043e4 <_dtoa_r+0xadc>
 80043de:	f018 0f01 	tst.w	r8, #1
 80043e2:	d1b2      	bne.n	800434a <_dtoa_r+0xa42>
 80043e4:	f815 3c01 	ldrb.w	r3, [r5, #-1]
 80043e8:	2b30      	cmp	r3, #48	; 0x30
 80043ea:	f105 32ff 	add.w	r2, r5, #4294967295
 80043ee:	f47f af0a 	bne.w	8004206 <_dtoa_r+0x8fe>
 80043f2:	4615      	mov	r5, r2
 80043f4:	e7f6      	b.n	80043e4 <_dtoa_r+0xadc>
 80043f6:	4593      	cmp	fp, r2
 80043f8:	d105      	bne.n	8004406 <_dtoa_r+0xafe>
 80043fa:	2331      	movs	r3, #49	; 0x31
 80043fc:	f10a 0a01 	add.w	sl, sl, #1
 8004400:	f88b 3000 	strb.w	r3, [fp]
 8004404:	e6ff      	b.n	8004206 <_dtoa_r+0x8fe>
 8004406:	4615      	mov	r5, r2
 8004408:	e79f      	b.n	800434a <_dtoa_r+0xa42>
 800440a:	f8df b064 	ldr.w	fp, [pc, #100]	; 8004470 <_dtoa_r+0xb68>
 800440e:	e007      	b.n	8004420 <_dtoa_r+0xb18>
 8004410:	9b21      	ldr	r3, [sp, #132]	; 0x84
 8004412:	f8df b060 	ldr.w	fp, [pc, #96]	; 8004474 <_dtoa_r+0xb6c>
 8004416:	b11b      	cbz	r3, 8004420 <_dtoa_r+0xb18>
 8004418:	f10b 0308 	add.w	r3, fp, #8
 800441c:	9a21      	ldr	r2, [sp, #132]	; 0x84
 800441e:	6013      	str	r3, [r2, #0]
 8004420:	4658      	mov	r0, fp
 8004422:	b017      	add	sp, #92	; 0x5c
 8004424:	e8bd 8ff0 	ldmia.w	sp!, {r4, r5, r6, r7, r8, r9, sl, fp, pc}
 8004428:	9b06      	ldr	r3, [sp, #24]
 800442a:	2b01      	cmp	r3, #1
 800442c:	f77f ae35 	ble.w	800409a <_dtoa_r+0x792>
 8004430:	9b0e      	ldr	r3, [sp, #56]	; 0x38
 8004432:	9307      	str	r3, [sp, #28]
 8004434:	e649      	b.n	80040ca <_dtoa_r+0x7c2>
 8004436:	9b02      	ldr	r3, [sp, #8]
 8004438:	2b00      	cmp	r3, #0
 800443a:	dc03      	bgt.n	8004444 <_dtoa_r+0xb3c>
 800443c:	9b06      	ldr	r3, [sp, #24]
 800443e:	2b02      	cmp	r3, #2
 8004440:	f73f aecc 	bgt.w	80041dc <_dtoa_r+0x8d4>
 8004444:	465d      	mov	r5, fp
 8004446:	4639      	mov	r1, r7
 8004448:	9804      	ldr	r0, [sp, #16]
 800444a:	f7ff f9ce 	bl	80037ea <quorem>
 800444e:	f100 0830 	add.w	r8, r0, #48	; 0x30
 8004452:	f805 8b01 	strb.w	r8, [r5], #1
 8004456:	9a02      	ldr	r2, [sp, #8]
 8004458:	eba5 030b 	sub.w	r3, r5, fp
 800445c:	429a      	cmp	r2, r3
 800445e:	ddb0      	ble.n	80043c2 <_dtoa_r+0xaba>
 8004460:	2300      	movs	r3, #0
 8004462:	220a      	movs	r2, #10
 8004464:	9904      	ldr	r1, [sp, #16]
 8004466:	4620      	mov	r0, r4
 8004468:	f000 f872 	bl	8004550 <__multadd>
 800446c:	9004      	str	r0, [sp, #16]
 800446e:	e7ea      	b.n	8004446 <_dtoa_r+0xb3e>
 8004470:	08004be8 	.word	0x08004be8
 8004474:	08004bea 	.word	0x08004bea

08004478 <_localeconv_r>:
 8004478:	4b04      	ldr	r3, [pc, #16]	; (800448c <_localeconv_r+0x14>)
 800447a:	681b      	ldr	r3, [r3, #0]
 800447c:	6a18      	ldr	r0, [r3, #32]
 800447e:	4b04      	ldr	r3, [pc, #16]	; (8004490 <_localeconv_r+0x18>)
 8004480:	2800      	cmp	r0, #0
 8004482:	bf08      	it	eq
 8004484:	4618      	moveq	r0, r3
 8004486:	30f0      	adds	r0, #240	; 0xf0
 8004488:	4770      	bx	lr
 800448a:	bf00      	nop
 800448c:	2000000c 	.word	0x2000000c
 8004490:	20000070 	.word	0x20000070

08004494 <malloc>:
 8004494:	4b02      	ldr	r3, [pc, #8]	; (80044a0 <malloc+0xc>)
 8004496:	4601      	mov	r1, r0
 8004498:	6818      	ldr	r0, [r3, #0]
 800449a:	f000 baf7 	b.w	8004a8c <_malloc_r>
 800449e:	bf00      	nop
 80044a0:	2000000c 	.word	0x2000000c

080044a4 <memcpy>:
 80044a4:	b510      	push	{r4, lr}
 80044a6:	1e43      	subs	r3, r0, #1
 80044a8:	440a      	add	r2, r1
 80044aa:	4291      	cmp	r1, r2
 80044ac:	d100      	bne.n	80044b0 <memcpy+0xc>
 80044ae:	bd10      	pop	{r4, pc}
 80044b0:	f811 4b01 	ldrb.w	r4, [r1], #1
 80044b4:	f803 4f01 	strb.w	r4, [r3, #1]!
 80044b8:	e7f7      	b.n	80044aa <memcpy+0x6>

080044ba <_Balloc>:
 80044ba:	b570      	push	{r4, r5, r6, lr}
 80044bc:	6a45      	ldr	r5, [r0, #36]	; 0x24
 80044be:	4604      	mov	r4, r0
 80044c0:	460e      	mov	r6, r1
 80044c2:	b93d      	cbnz	r5, 80044d4 <_Balloc+0x1a>
 80044c4:	2010      	movs	r0, #16
 80044c6:	f7ff ffe5 	bl	8004494 <malloc>
 80044ca:	6260      	str	r0, [r4, #36]	; 0x24
 80044cc:	e9c0 5501 	strd	r5, r5, [r0, #4]
 80044d0:	6005      	str	r5, [r0, #0]
 80044d2:	60c5      	str	r5, [r0, #12]
 80044d4:	6a65      	ldr	r5, [r4, #36]	; 0x24
 80044d6:	68eb      	ldr	r3, [r5, #12]
 80044d8:	b183      	cbz	r3, 80044fc <_Balloc+0x42>
 80044da:	6a63      	ldr	r3, [r4, #36]	; 0x24
 80044dc:	68db      	ldr	r3, [r3, #12]
 80044de:	f853 0026 	ldr.w	r0, [r3, r6, lsl #2]
 80044e2:	b9b8      	cbnz	r0, 8004514 <_Balloc+0x5a>
 80044e4:	2101      	movs	r1, #1
 80044e6:	fa01 f506 	lsl.w	r5, r1, r6
 80044ea:	1d6a      	adds	r2, r5, #5
 80044ec:	0092      	lsls	r2, r2, #2
 80044ee:	4620      	mov	r0, r4
 80044f0:	f000 fabe 	bl	8004a70 <_calloc_r>
 80044f4:	b160      	cbz	r0, 8004510 <_Balloc+0x56>
 80044f6:	e9c0 6501 	strd	r6, r5, [r0, #4]
 80044fa:	e00e      	b.n	800451a <_Balloc+0x60>
 80044fc:	2221      	movs	r2, #33	; 0x21
 80044fe:	2104      	movs	r1, #4
 8004500:	4620      	mov	r0, r4
 8004502:	f000 fab5 	bl	8004a70 <_calloc_r>
 8004506:	6a63      	ldr	r3, [r4, #36]	; 0x24
 8004508:	60e8      	str	r0, [r5, #12]
 800450a:	68db      	ldr	r3, [r3, #12]
 800450c:	2b00      	cmp	r3, #0
 800450e:	d1e4      	bne.n	80044da <_Balloc+0x20>
 8004510:	2000      	movs	r0, #0
 8004512:	bd70      	pop	{r4, r5, r6, pc}
 8004514:	6802      	ldr	r2, [r0, #0]
 8004516:	f843 2026 	str.w	r2, [r3, r6, lsl #2]
 800451a:	2300      	movs	r3, #0
 800451c:	e9c0 3303 	strd	r3, r3, [r0, #12]
 8004520:	e7f7      	b.n	8004512 <_Balloc+0x58>

08004522 <_Bfree>:
 8004522:	b570      	push	{r4, r5, r6, lr}
 8004524:	6a44      	ldr	r4, [r0, #36]	; 0x24
 8004526:	4606      	mov	r6, r0
 8004528:	460d      	mov	r5, r1
 800452a:	b93c      	cbnz	r4, 800453c <_Bfree+0x1a>
 800452c:	2010      	movs	r0, #16
 800452e:	f7ff ffb1 	bl	8004494 <malloc>
 8004532:	6270      	str	r0, [r6, #36]	; 0x24
 8004534:	e9c0 4401 	strd	r4, r4, [r0, #4]
 8004538:	6004      	str	r4, [r0, #0]
 800453a:	60c4      	str	r4, [r0, #12]
 800453c:	b13d      	cbz	r5, 800454e <_Bfree+0x2c>
 800453e:	6a73      	ldr	r3, [r6, #36]	; 0x24
 8004540:	686a      	ldr	r2, [r5, #4]
 8004542:	68db      	ldr	r3, [r3, #12]
 8004544:	f853 1022 	ldr.w	r1, [r3, r2, lsl #2]
 8004548:	6029      	str	r1, [r5, #0]
 800454a:	f843 5022 	str.w	r5, [r3, r2, lsl #2]
 800454e:	bd70      	pop	{r4, r5, r6, pc}

08004550 <__multadd>:
 8004550:	e92d 41f0 	stmdb	sp!, {r4, r5, r6, r7, r8, lr}
 8004554:	690d      	ldr	r5, [r1, #16]
 8004556:	461f      	mov	r7, r3
 8004558:	4606      	mov	r6, r0
 800455a:	460c      	mov	r4, r1
 800455c:	f101 0c14 	add.w	ip, r1, #20
 8004560:	2300      	movs	r3, #0
 8004562:	f8dc 0000 	ldr.w	r0, [ip]
 8004566:	b281      	uxth	r1, r0
 8004568:	fb02 7101 	mla	r1, r2, r1, r7
 800456c:	0c0f      	lsrs	r7, r1, #16
 800456e:	0c00      	lsrs	r0, r0, #16
 8004570:	fb02 7000 	mla	r0, r2, r0, r7
 8004574:	b289      	uxth	r1, r1
 8004576:	3301      	adds	r3, #1
 8004578:	eb01 4100 	add.w	r1, r1, r0, lsl #16
 800457c:	429d      	cmp	r5, r3
 800457e:	ea4f 4710 	mov.w	r7, r0, lsr #16
 8004582:	f84c 1b04 	str.w	r1, [ip], #4
 8004586:	dcec      	bgt.n	8004562 <__multadd+0x12>
 8004588:	b1d7      	cbz	r7, 80045c0 <__multadd+0x70>
 800458a:	68a3      	ldr	r3, [r4, #8]
 800458c:	42ab      	cmp	r3, r5
 800458e:	dc12      	bgt.n	80045b6 <__multadd+0x66>
 8004590:	6861      	ldr	r1, [r4, #4]
 8004592:	4630      	mov	r0, r6
 8004594:	3101      	adds	r1, #1
 8004596:	f7ff ff90 	bl	80044ba <_Balloc>
 800459a:	6922      	ldr	r2, [r4, #16]
 800459c:	3202      	adds	r2, #2
 800459e:	f104 010c 	add.w	r1, r4, #12
 80045a2:	4680      	mov	r8, r0
 80045a4:	0092      	lsls	r2, r2, #2
 80045a6:	300c      	adds	r0, #12
 80045a8:	f7ff ff7c 	bl	80044a4 <memcpy>
 80045ac:	4621      	mov	r1, r4
 80045ae:	4630      	mov	r0, r6
 80045b0:	f7ff ffb7 	bl	8004522 <_Bfree>
 80045b4:	4644      	mov	r4, r8
 80045b6:	eb04 0385 	add.w	r3, r4, r5, lsl #2
 80045ba:	3501      	adds	r5, #1
 80045bc:	615f      	str	r7, [r3, #20]
 80045be:	6125      	str	r5, [r4, #16]
 80045c0:	4620      	mov	r0, r4
 80045c2:	e8bd 81f0 	ldmia.w	sp!, {r4, r5, r6, r7, r8, pc}

080045c6 <__hi0bits>:
 80045c6:	0c02      	lsrs	r2, r0, #16
 80045c8:	0412      	lsls	r2, r2, #16
 80045ca:	4603      	mov	r3, r0
 80045cc:	b9b2      	cbnz	r2, 80045fc <__hi0bits+0x36>
 80045ce:	0403      	lsls	r3, r0, #16
 80045d0:	2010      	movs	r0, #16
 80045d2:	f013 4f7f 	tst.w	r3, #4278190080	; 0xff000000
 80045d6:	bf04      	itt	eq
 80045d8:	021b      	lsleq	r3, r3, #8
 80045da:	3008      	addeq	r0, #8
 80045dc:	f013 4f70 	tst.w	r3, #4026531840	; 0xf0000000
 80045e0:	bf04      	itt	eq
 80045e2:	011b      	lsleq	r3, r3, #4
 80045e4:	3004      	addeq	r0, #4
 80045e6:	f013 4f40 	tst.w	r3, #3221225472	; 0xc0000000
 80045ea:	bf04      	itt	eq
 80045ec:	009b      	lsleq	r3, r3, #2
 80045ee:	3002      	addeq	r0, #2
 80045f0:	2b00      	cmp	r3, #0
 80045f2:	db06      	blt.n	8004602 <__hi0bits+0x3c>
 80045f4:	005b      	lsls	r3, r3, #1
 80045f6:	d503      	bpl.n	8004600 <__hi0bits+0x3a>
 80045f8:	3001      	adds	r0, #1
 80045fa:	4770      	bx	lr
 80045fc:	2000      	movs	r0, #0
 80045fe:	e7e8      	b.n	80045d2 <__hi0bits+0xc>
 8004600:	2020      	movs	r0, #32
 8004602:	4770      	bx	lr

08004604 <__lo0bits>:
 8004604:	6803      	ldr	r3, [r0, #0]
 8004606:	f013 0207 	ands.w	r2, r3, #7
 800460a:	4601      	mov	r1, r0
 800460c:	d00b      	beq.n	8004626 <__lo0bits+0x22>
 800460e:	07da      	lsls	r2, r3, #31
 8004610:	d423      	bmi.n	800465a <__lo0bits+0x56>
 8004612:	0798      	lsls	r0, r3, #30
 8004614:	bf49      	itett	mi
 8004616:	085b      	lsrmi	r3, r3, #1
 8004618:	089b      	lsrpl	r3, r3, #2
 800461a:	2001      	movmi	r0, #1
 800461c:	600b      	strmi	r3, [r1, #0]
 800461e:	bf5c      	itt	pl
 8004620:	600b      	strpl	r3, [r1, #0]
 8004622:	2002      	movpl	r0, #2
 8004624:	4770      	bx	lr
 8004626:	b298      	uxth	r0, r3
 8004628:	b9a8      	cbnz	r0, 8004656 <__lo0bits+0x52>
 800462a:	0c1b      	lsrs	r3, r3, #16
 800462c:	2010      	movs	r0, #16
 800462e:	f013 0fff 	tst.w	r3, #255	; 0xff
 8004632:	bf04      	itt	eq
 8004634:	0a1b      	lsreq	r3, r3, #8
 8004636:	3008      	addeq	r0, #8
 8004638:	071a      	lsls	r2, r3, #28
 800463a:	bf04      	itt	eq
 800463c:	091b      	lsreq	r3, r3, #4
 800463e:	3004      	addeq	r0, #4
 8004640:	079a      	lsls	r2, r3, #30
 8004642:	bf04      	itt	eq
 8004644:	089b      	lsreq	r3, r3, #2
 8004646:	3002      	addeq	r0, #2
 8004648:	07da      	lsls	r2, r3, #31
 800464a:	d402      	bmi.n	8004652 <__lo0bits+0x4e>
 800464c:	085b      	lsrs	r3, r3, #1
 800464e:	d006      	beq.n	800465e <__lo0bits+0x5a>
 8004650:	3001      	adds	r0, #1
 8004652:	600b      	str	r3, [r1, #0]
 8004654:	4770      	bx	lr
 8004656:	4610      	mov	r0, r2
 8004658:	e7e9      	b.n	800462e <__lo0bits+0x2a>
 800465a:	2000      	movs	r0, #0
 800465c:	4770      	bx	lr
 800465e:	2020      	movs	r0, #32
 8004660:	4770      	bx	lr

08004662 <__i2b>:
 8004662:	b510      	push	{r4, lr}
 8004664:	460c      	mov	r4, r1
 8004666:	2101      	movs	r1, #1
 8004668:	f7ff ff27 	bl	80044ba <_Balloc>
 800466c:	2201      	movs	r2, #1
 800466e:	6144      	str	r4, [r0, #20]
 8004670:	6102      	str	r2, [r0, #16]
 8004672:	bd10      	pop	{r4, pc}

08004674 <__multiply>:
 8004674:	e92d 4ff7 	stmdb	sp!, {r0, r1, r2, r4, r5, r6, r7, r8, r9, sl, fp, lr}
 8004678:	4614      	mov	r4, r2
 800467a:	690a      	ldr	r2, [r1, #16]
 800467c:	6923      	ldr	r3, [r4, #16]
 800467e:	429a      	cmp	r2, r3
 8004680:	bfb8      	it	lt
 8004682:	460b      	movlt	r3, r1
 8004684:	4688      	mov	r8, r1
 8004686:	bfbc      	itt	lt
 8004688:	46a0      	movlt	r8, r4
 800468a:	461c      	movlt	r4, r3
 800468c:	f8d8 7010 	ldr.w	r7, [r8, #16]
 8004690:	f8d4 9010 	ldr.w	r9, [r4, #16]
 8004694:	f8d8 3008 	ldr.w	r3, [r8, #8]
 8004698:	f8d8 1004 	ldr.w	r1, [r8, #4]
 800469c:	eb07 0609 	add.w	r6, r7, r9
 80046a0:	42b3      	cmp	r3, r6
 80046a2:	bfb8      	it	lt
 80046a4:	3101      	addlt	r1, #1
 80046a6:	f7ff ff08 	bl	80044ba <_Balloc>
 80046aa:	f100 0514 	add.w	r5, r0, #20
 80046ae:	eb05 0e86 	add.w	lr, r5, r6, lsl #2
 80046b2:	462b      	mov	r3, r5
 80046b4:	2200      	movs	r2, #0
 80046b6:	4573      	cmp	r3, lr
 80046b8:	d316      	bcc.n	80046e8 <__multiply+0x74>
 80046ba:	f104 0214 	add.w	r2, r4, #20
 80046be:	f108 0114 	add.w	r1, r8, #20
 80046c2:	eb02 0389 	add.w	r3, r2, r9, lsl #2
 80046c6:	eb01 0787 	add.w	r7, r1, r7, lsl #2
 80046ca:	9300      	str	r3, [sp, #0]
 80046cc:	9b00      	ldr	r3, [sp, #0]
 80046ce:	9201      	str	r2, [sp, #4]
 80046d0:	4293      	cmp	r3, r2
 80046d2:	d80c      	bhi.n	80046ee <__multiply+0x7a>
 80046d4:	2e00      	cmp	r6, #0
 80046d6:	dd03      	ble.n	80046e0 <__multiply+0x6c>
 80046d8:	f85e 3d04 	ldr.w	r3, [lr, #-4]!
 80046dc:	2b00      	cmp	r3, #0
 80046de:	d05d      	beq.n	800479c <__multiply+0x128>
 80046e0:	6106      	str	r6, [r0, #16]
 80046e2:	b003      	add	sp, #12
 80046e4:	e8bd 8ff0 	ldmia.w	sp!, {r4, r5, r6, r7, r8, r9, sl, fp, pc}
 80046e8:	f843 2b04 	str.w	r2, [r3], #4
 80046ec:	e7e3      	b.n	80046b6 <__multiply+0x42>
 80046ee:	f8b2 b000 	ldrh.w	fp, [r2]
 80046f2:	f1bb 0f00 	cmp.w	fp, #0
 80046f6:	d023      	beq.n	8004740 <__multiply+0xcc>
 80046f8:	4689      	mov	r9, r1
 80046fa:	46ac      	mov	ip, r5
 80046fc:	f04f 0800 	mov.w	r8, #0
 8004700:	f859 4b04 	ldr.w	r4, [r9], #4
 8004704:	f8dc a000 	ldr.w	sl, [ip]
 8004708:	b2a3      	uxth	r3, r4
 800470a:	fa1f fa8a 	uxth.w	sl, sl
 800470e:	fb0b a303 	mla	r3, fp, r3, sl
 8004712:	ea4f 4a14 	mov.w	sl, r4, lsr #16
 8004716:	f8dc 4000 	ldr.w	r4, [ip]
 800471a:	4443      	add	r3, r8
 800471c:	ea4f 4814 	mov.w	r8, r4, lsr #16
 8004720:	fb0b 840a 	mla	r4, fp, sl, r8
 8004724:	eb04 4413 	add.w	r4, r4, r3, lsr #16
 8004728:	46e2      	mov	sl, ip
 800472a:	b29b      	uxth	r3, r3
 800472c:	ea43 4304 	orr.w	r3, r3, r4, lsl #16
 8004730:	454f      	cmp	r7, r9
 8004732:	ea4f 4814 	mov.w	r8, r4, lsr #16
 8004736:	f84a 3b04 	str.w	r3, [sl], #4
 800473a:	d82b      	bhi.n	8004794 <__multiply+0x120>
 800473c:	f8cc 8004 	str.w	r8, [ip, #4]
 8004740:	9b01      	ldr	r3, [sp, #4]
 8004742:	f8b3 a002 	ldrh.w	sl, [r3, #2]
 8004746:	3204      	adds	r2, #4
 8004748:	f1ba 0f00 	cmp.w	sl, #0
 800474c:	d020      	beq.n	8004790 <__multiply+0x11c>
 800474e:	682b      	ldr	r3, [r5, #0]
 8004750:	4689      	mov	r9, r1
 8004752:	46a8      	mov	r8, r5
 8004754:	f04f 0b00 	mov.w	fp, #0
 8004758:	f8b9 c000 	ldrh.w	ip, [r9]
 800475c:	f8b8 4002 	ldrh.w	r4, [r8, #2]
 8004760:	fb0a 440c 	mla	r4, sl, ip, r4
 8004764:	445c      	add	r4, fp
 8004766:	46c4      	mov	ip, r8
 8004768:	b29b      	uxth	r3, r3
 800476a:	ea43 4304 	orr.w	r3, r3, r4, lsl #16
 800476e:	f84c 3b04 	str.w	r3, [ip], #4
 8004772:	f859 3b04 	ldr.w	r3, [r9], #4
 8004776:	f8b8 b004 	ldrh.w	fp, [r8, #4]
 800477a:	0c1b      	lsrs	r3, r3, #16
 800477c:	fb0a b303 	mla	r3, sl, r3, fp
 8004780:	eb03 4314 	add.w	r3, r3, r4, lsr #16
 8004784:	454f      	cmp	r7, r9
 8004786:	ea4f 4b13 	mov.w	fp, r3, lsr #16
 800478a:	d805      	bhi.n	8004798 <__multiply+0x124>
 800478c:	f8c8 3004 	str.w	r3, [r8, #4]
 8004790:	3504      	adds	r5, #4
 8004792:	e79b      	b.n	80046cc <__multiply+0x58>
 8004794:	46d4      	mov	ip, sl
 8004796:	e7b3      	b.n	8004700 <__multiply+0x8c>
 8004798:	46e0      	mov	r8, ip
 800479a:	e7dd      	b.n	8004758 <__multiply+0xe4>
 800479c:	3e01      	subs	r6, #1
 800479e:	e799      	b.n	80046d4 <__multiply+0x60>

080047a0 <__pow5mult>:
 80047a0:	e92d 43f8 	stmdb	sp!, {r3, r4, r5, r6, r7, r8, r9, lr}
 80047a4:	4615      	mov	r5, r2
 80047a6:	f012 0203 	ands.w	r2, r2, #3
 80047aa:	4606      	mov	r6, r0
 80047ac:	460f      	mov	r7, r1
 80047ae:	d007      	beq.n	80047c0 <__pow5mult+0x20>
 80047b0:	3a01      	subs	r2, #1
 80047b2:	4c21      	ldr	r4, [pc, #132]	; (8004838 <__pow5mult+0x98>)
 80047b4:	2300      	movs	r3, #0
 80047b6:	f854 2022 	ldr.w	r2, [r4, r2, lsl #2]
 80047ba:	f7ff fec9 	bl	8004550 <__multadd>
 80047be:	4607      	mov	r7, r0
 80047c0:	10ad      	asrs	r5, r5, #2
 80047c2:	d035      	beq.n	8004830 <__pow5mult+0x90>
 80047c4:	6a74      	ldr	r4, [r6, #36]	; 0x24
 80047c6:	b93c      	cbnz	r4, 80047d8 <__pow5mult+0x38>
 80047c8:	2010      	movs	r0, #16
 80047ca:	f7ff fe63 	bl	8004494 <malloc>
 80047ce:	6270      	str	r0, [r6, #36]	; 0x24
 80047d0:	e9c0 4401 	strd	r4, r4, [r0, #4]
 80047d4:	6004      	str	r4, [r0, #0]
 80047d6:	60c4      	str	r4, [r0, #12]
 80047d8:	f8d6 8024 	ldr.w	r8, [r6, #36]	; 0x24
 80047dc:	f8d8 4008 	ldr.w	r4, [r8, #8]
 80047e0:	b94c      	cbnz	r4, 80047f6 <__pow5mult+0x56>
 80047e2:	f240 2171 	movw	r1, #625	; 0x271
 80047e6:	4630      	mov	r0, r6
 80047e8:	f7ff ff3b 	bl	8004662 <__i2b>
 80047ec:	2300      	movs	r3, #0
 80047ee:	f8c8 0008 	str.w	r0, [r8, #8]
 80047f2:	4604      	mov	r4, r0
 80047f4:	6003      	str	r3, [r0, #0]
 80047f6:	f04f 0800 	mov.w	r8, #0
 80047fa:	07eb      	lsls	r3, r5, #31
 80047fc:	d50a      	bpl.n	8004814 <__pow5mult+0x74>
 80047fe:	4639      	mov	r1, r7
 8004800:	4622      	mov	r2, r4
 8004802:	4630      	mov	r0, r6
 8004804:	f7ff ff36 	bl	8004674 <__multiply>
 8004808:	4639      	mov	r1, r7
 800480a:	4681      	mov	r9, r0
 800480c:	4630      	mov	r0, r6
 800480e:	f7ff fe88 	bl	8004522 <_Bfree>
 8004812:	464f      	mov	r7, r9
 8004814:	106d      	asrs	r5, r5, #1
 8004816:	d00b      	beq.n	8004830 <__pow5mult+0x90>
 8004818:	6820      	ldr	r0, [r4, #0]
 800481a:	b938      	cbnz	r0, 800482c <__pow5mult+0x8c>
 800481c:	4622      	mov	r2, r4
 800481e:	4621      	mov	r1, r4
 8004820:	4630      	mov	r0, r6
 8004822:	f7ff ff27 	bl	8004674 <__multiply>
 8004826:	6020      	str	r0, [r4, #0]
 8004828:	f8c0 8000 	str.w	r8, [r0]
 800482c:	4604      	mov	r4, r0
 800482e:	e7e4      	b.n	80047fa <__pow5mult+0x5a>
 8004830:	4638      	mov	r0, r7
 8004832:	e8bd 83f8 	ldmia.w	sp!, {r3, r4, r5, r6, r7, r8, r9, pc}
 8004836:	bf00      	nop
 8004838:	08004ce8 	.word	0x08004ce8

0800483c <__lshift>:
 800483c:	e92d 47f0 	stmdb	sp!, {r4, r5, r6, r7, r8, r9, sl, lr}
 8004840:	460c      	mov	r4, r1
 8004842:	ea4f 1a62 	mov.w	sl, r2, asr #5
 8004846:	6923      	ldr	r3, [r4, #16]
 8004848:	6849      	ldr	r1, [r1, #4]
 800484a:	eb0a 0903 	add.w	r9, sl, r3
 800484e:	68a3      	ldr	r3, [r4, #8]
 8004850:	4607      	mov	r7, r0
 8004852:	4616      	mov	r6, r2
 8004854:	f109 0501 	add.w	r5, r9, #1
 8004858:	42ab      	cmp	r3, r5
 800485a:	db32      	blt.n	80048c2 <__lshift+0x86>
 800485c:	4638      	mov	r0, r7
 800485e:	f7ff fe2c 	bl	80044ba <_Balloc>
 8004862:	2300      	movs	r3, #0
 8004864:	4680      	mov	r8, r0
 8004866:	f100 0114 	add.w	r1, r0, #20
 800486a:	461a      	mov	r2, r3
 800486c:	4553      	cmp	r3, sl
 800486e:	db2b      	blt.n	80048c8 <__lshift+0x8c>
 8004870:	6920      	ldr	r0, [r4, #16]
 8004872:	ea2a 7aea 	bic.w	sl, sl, sl, asr #31
 8004876:	f104 0314 	add.w	r3, r4, #20
 800487a:	f016 021f 	ands.w	r2, r6, #31
 800487e:	eb01 018a 	add.w	r1, r1, sl, lsl #2
 8004882:	eb03 0c80 	add.w	ip, r3, r0, lsl #2
 8004886:	d025      	beq.n	80048d4 <__lshift+0x98>
 8004888:	f1c2 0e20 	rsb	lr, r2, #32
 800488c:	2000      	movs	r0, #0
 800488e:	681e      	ldr	r6, [r3, #0]
 8004890:	468a      	mov	sl, r1
 8004892:	4096      	lsls	r6, r2
 8004894:	4330      	orrs	r0, r6
 8004896:	f84a 0b04 	str.w	r0, [sl], #4
 800489a:	f853 0b04 	ldr.w	r0, [r3], #4
 800489e:	459c      	cmp	ip, r3
 80048a0:	fa20 f00e 	lsr.w	r0, r0, lr
 80048a4:	d814      	bhi.n	80048d0 <__lshift+0x94>
 80048a6:	6048      	str	r0, [r1, #4]
 80048a8:	b108      	cbz	r0, 80048ae <__lshift+0x72>
 80048aa:	f109 0502 	add.w	r5, r9, #2
 80048ae:	3d01      	subs	r5, #1
 80048b0:	4638      	mov	r0, r7
 80048b2:	f8c8 5010 	str.w	r5, [r8, #16]
 80048b6:	4621      	mov	r1, r4
 80048b8:	f7ff fe33 	bl	8004522 <_Bfree>
 80048bc:	4640      	mov	r0, r8
 80048be:	e8bd 87f0 	ldmia.w	sp!, {r4, r5, r6, r7, r8, r9, sl, pc}
 80048c2:	3101      	adds	r1, #1
 80048c4:	005b      	lsls	r3, r3, #1
 80048c6:	e7c7      	b.n	8004858 <__lshift+0x1c>
 80048c8:	f841 2023 	str.w	r2, [r1, r3, lsl #2]
 80048cc:	3301      	adds	r3, #1
 80048ce:	e7cd      	b.n	800486c <__lshift+0x30>
 80048d0:	4651      	mov	r1, sl
 80048d2:	e7dc      	b.n	800488e <__lshift+0x52>
 80048d4:	3904      	subs	r1, #4
 80048d6:	f853 2b04 	ldr.w	r2, [r3], #4
 80048da:	f841 2f04 	str.w	r2, [r1, #4]!
 80048de:	459c      	cmp	ip, r3
 80048e0:	d8f9      	bhi.n	80048d6 <__lshift+0x9a>
 80048e2:	e7e4      	b.n	80048ae <__lshift+0x72>

080048e4 <__mcmp>:
 80048e4:	6903      	ldr	r3, [r0, #16]
 80048e6:	690a      	ldr	r2, [r1, #16]
 80048e8:	1a9b      	subs	r3, r3, r2
 80048ea:	b530      	push	{r4, r5, lr}
 80048ec:	d10c      	bne.n	8004908 <__mcmp+0x24>
 80048ee:	0092      	lsls	r2, r2, #2
 80048f0:	3014      	adds	r0, #20
 80048f2:	3114      	adds	r1, #20
 80048f4:	1884      	adds	r4, r0, r2
 80048f6:	4411      	add	r1, r2
 80048f8:	f854 5d04 	ldr.w	r5, [r4, #-4]!
 80048fc:	f851 2d04 	ldr.w	r2, [r1, #-4]!
 8004900:	4295      	cmp	r5, r2
 8004902:	d003      	beq.n	800490c <__mcmp+0x28>
 8004904:	d305      	bcc.n	8004912 <__mcmp+0x2e>
 8004906:	2301      	movs	r3, #1
 8004908:	4618      	mov	r0, r3
 800490a:	bd30      	pop	{r4, r5, pc}
 800490c:	42a0      	cmp	r0, r4
 800490e:	d3f3      	bcc.n	80048f8 <__mcmp+0x14>
 8004910:	e7fa      	b.n	8004908 <__mcmp+0x24>
 8004912:	f04f 33ff 	mov.w	r3, #4294967295
 8004916:	e7f7      	b.n	8004908 <__mcmp+0x24>

08004918 <__mdiff>:
 8004918:	e92d 47f0 	stmdb	sp!, {r4, r5, r6, r7, r8, r9, sl, lr}
 800491c:	460d      	mov	r5, r1
 800491e:	4607      	mov	r7, r0
 8004920:	4611      	mov	r1, r2
 8004922:	4628      	mov	r0, r5
 8004924:	4614      	mov	r4, r2
 8004926:	f7ff ffdd 	bl	80048e4 <__mcmp>
 800492a:	1e06      	subs	r6, r0, #0
 800492c:	d108      	bne.n	8004940 <__mdiff+0x28>
 800492e:	4631      	mov	r1, r6
 8004930:	4638      	mov	r0, r7
 8004932:	f7ff fdc2 	bl	80044ba <_Balloc>
 8004936:	2301      	movs	r3, #1
 8004938:	e9c0 3604 	strd	r3, r6, [r0, #16]
 800493c:	e8bd 87f0 	ldmia.w	sp!, {r4, r5, r6, r7, r8, r9, sl, pc}
 8004940:	bfa4      	itt	ge
 8004942:	4623      	movge	r3, r4
 8004944:	462c      	movge	r4, r5
 8004946:	4638      	mov	r0, r7
 8004948:	6861      	ldr	r1, [r4, #4]
 800494a:	bfa6      	itte	ge
 800494c:	461d      	movge	r5, r3
 800494e:	2600      	movge	r6, #0
 8004950:	2601      	movlt	r6, #1
 8004952:	f7ff fdb2 	bl	80044ba <_Balloc>
 8004956:	692b      	ldr	r3, [r5, #16]
 8004958:	60c6      	str	r6, [r0, #12]
 800495a:	6926      	ldr	r6, [r4, #16]
 800495c:	f105 0914 	add.w	r9, r5, #20
 8004960:	f104 0214 	add.w	r2, r4, #20
 8004964:	eb02 0786 	add.w	r7, r2, r6, lsl #2
 8004968:	eb09 0883 	add.w	r8, r9, r3, lsl #2
 800496c:	f100 0514 	add.w	r5, r0, #20
 8004970:	f04f 0e00 	mov.w	lr, #0
 8004974:	f852 ab04 	ldr.w	sl, [r2], #4
 8004978:	f859 4b04 	ldr.w	r4, [r9], #4
 800497c:	fa1e f18a 	uxtah	r1, lr, sl
 8004980:	b2a3      	uxth	r3, r4
 8004982:	1ac9      	subs	r1, r1, r3
 8004984:	0c23      	lsrs	r3, r4, #16
 8004986:	ebc3 431a 	rsb	r3, r3, sl, lsr #16
 800498a:	eb03 4321 	add.w	r3, r3, r1, asr #16
 800498e:	b289      	uxth	r1, r1
 8004990:	ea4f 4e23 	mov.w	lr, r3, asr #16
 8004994:	45c8      	cmp	r8, r9
 8004996:	ea41 4303 	orr.w	r3, r1, r3, lsl #16
 800499a:	4694      	mov	ip, r2
 800499c:	f845 3b04 	str.w	r3, [r5], #4
 80049a0:	d8e8      	bhi.n	8004974 <__mdiff+0x5c>
 80049a2:	45bc      	cmp	ip, r7
 80049a4:	d304      	bcc.n	80049b0 <__mdiff+0x98>
 80049a6:	f855 3d04 	ldr.w	r3, [r5, #-4]!
 80049aa:	b183      	cbz	r3, 80049ce <__mdiff+0xb6>
 80049ac:	6106      	str	r6, [r0, #16]
 80049ae:	e7c5      	b.n	800493c <__mdiff+0x24>
 80049b0:	f85c 1b04 	ldr.w	r1, [ip], #4
 80049b4:	fa1e f381 	uxtah	r3, lr, r1
 80049b8:	141a      	asrs	r2, r3, #16
 80049ba:	eb02 4211 	add.w	r2, r2, r1, lsr #16
 80049be:	b29b      	uxth	r3, r3
 80049c0:	ea43 4302 	orr.w	r3, r3, r2, lsl #16
 80049c4:	ea4f 4e22 	mov.w	lr, r2, asr #16
 80049c8:	f845 3b04 	str.w	r3, [r5], #4
 80049cc:	e7e9      	b.n	80049a2 <__mdiff+0x8a>
 80049ce:	3e01      	subs	r6, #1
 80049d0:	e7e9      	b.n	80049a6 <__mdiff+0x8e>

080049d2 <__d2b>:
 80049d2:	e92d 43f7 	stmdb	sp!, {r0, r1, r2, r4, r5, r6, r7, r8, r9, lr}
 80049d6:	460e      	mov	r6, r1
 80049d8:	2101      	movs	r1, #1
 80049da:	ec59 8b10 	vmov	r8, r9, d0
 80049de:	4615      	mov	r5, r2
 80049e0:	f7ff fd6b 	bl	80044ba <_Balloc>
 80049e4:	f3c9 540a 	ubfx	r4, r9, #20, #11
 80049e8:	4607      	mov	r7, r0
 80049ea:	f3c9 0313 	ubfx	r3, r9, #0, #20
 80049ee:	bb34      	cbnz	r4, 8004a3e <__d2b+0x6c>
 80049f0:	9301      	str	r3, [sp, #4]
 80049f2:	f1b8 0300 	subs.w	r3, r8, #0
 80049f6:	d027      	beq.n	8004a48 <__d2b+0x76>
 80049f8:	a802      	add	r0, sp, #8
 80049fa:	f840 3d08 	str.w	r3, [r0, #-8]!
 80049fe:	f7ff fe01 	bl	8004604 <__lo0bits>
 8004a02:	9900      	ldr	r1, [sp, #0]
 8004a04:	b1f0      	cbz	r0, 8004a44 <__d2b+0x72>
 8004a06:	9a01      	ldr	r2, [sp, #4]
 8004a08:	f1c0 0320 	rsb	r3, r0, #32
 8004a0c:	fa02 f303 	lsl.w	r3, r2, r3
 8004a10:	430b      	orrs	r3, r1
 8004a12:	40c2      	lsrs	r2, r0
 8004a14:	617b      	str	r3, [r7, #20]
 8004a16:	9201      	str	r2, [sp, #4]
 8004a18:	9b01      	ldr	r3, [sp, #4]
 8004a1a:	61bb      	str	r3, [r7, #24]
 8004a1c:	2b00      	cmp	r3, #0
 8004a1e:	bf14      	ite	ne
 8004a20:	2102      	movne	r1, #2
 8004a22:	2101      	moveq	r1, #1
 8004a24:	6139      	str	r1, [r7, #16]
 8004a26:	b1c4      	cbz	r4, 8004a5a <__d2b+0x88>
 8004a28:	f2a4 4433 	subw	r4, r4, #1075	; 0x433
 8004a2c:	4404      	add	r4, r0
 8004a2e:	6034      	str	r4, [r6, #0]
 8004a30:	f1c0 0035 	rsb	r0, r0, #53	; 0x35
 8004a34:	6028      	str	r0, [r5, #0]
 8004a36:	4638      	mov	r0, r7
 8004a38:	b003      	add	sp, #12
 8004a3a:	e8bd 83f0 	ldmia.w	sp!, {r4, r5, r6, r7, r8, r9, pc}
 8004a3e:	f443 1380 	orr.w	r3, r3, #1048576	; 0x100000
 8004a42:	e7d5      	b.n	80049f0 <__d2b+0x1e>
 8004a44:	6179      	str	r1, [r7, #20]
 8004a46:	e7e7      	b.n	8004a18 <__d2b+0x46>
 8004a48:	a801      	add	r0, sp, #4
 8004a4a:	f7ff fddb 	bl	8004604 <__lo0bits>
 8004a4e:	9b01      	ldr	r3, [sp, #4]
 8004a50:	617b      	str	r3, [r7, #20]
 8004a52:	2101      	movs	r1, #1
 8004a54:	6139      	str	r1, [r7, #16]
 8004a56:	3020      	adds	r0, #32
 8004a58:	e7e5      	b.n	8004a26 <__d2b+0x54>
 8004a5a:	eb07 0381 	add.w	r3, r7, r1, lsl #2
 8004a5e:	f2a0 4032 	subw	r0, r0, #1074	; 0x432
 8004a62:	6030      	str	r0, [r6, #0]
 8004a64:	6918      	ldr	r0, [r3, #16]
 8004a66:	f7ff fdae 	bl	80045c6 <__hi0bits>
 8004a6a:	ebc0 1041 	rsb	r0, r0, r1, lsl #5
 8004a6e:	e7e1      	b.n	8004a34 <__d2b+0x62>

08004a70 <_calloc_r>:
 8004a70:	b538      	push	{r3, r4, r5, lr}
 8004a72:	fb02 f401 	mul.w	r4, r2, r1
 8004a76:	4621      	mov	r1, r4
 8004a78:	f000 f808 	bl	8004a8c <_malloc_r>
 8004a7c:	4605      	mov	r5, r0
 8004a7e:	b118      	cbz	r0, 8004a88 <_calloc_r+0x18>
 8004a80:	4622      	mov	r2, r4
 8004a82:	2100      	movs	r1, #0
 8004a84:	f7fe fb60 	bl	8003148 <memset>
 8004a88:	4628      	mov	r0, r5
 8004a8a:	bd38      	pop	{r3, r4, r5, pc}

08004a8c <_malloc_r>:
 8004a8c:	b570      	push	{r4, r5, r6, lr}
 8004a8e:	1ccd      	adds	r5, r1, #3
 8004a90:	f025 0503 	bic.w	r5, r5, #3
 8004a94:	3508      	adds	r5, #8
 8004a96:	2d0c      	cmp	r5, #12
 8004a98:	bf38      	it	cc
 8004a9a:	250c      	movcc	r5, #12
 8004a9c:	2d00      	cmp	r5, #0
 8004a9e:	4606      	mov	r6, r0
 8004aa0:	db01      	blt.n	8004aa6 <_malloc_r+0x1a>
 8004aa2:	42a9      	cmp	r1, r5
 8004aa4:	d903      	bls.n	8004aae <_malloc_r+0x22>
 8004aa6:	230c      	movs	r3, #12
 8004aa8:	6033      	str	r3, [r6, #0]
 8004aaa:	2000      	movs	r0, #0
 8004aac:	bd70      	pop	{r4, r5, r6, pc}
 8004aae:	f000 f869 	bl	8004b84 <__malloc_lock>
 8004ab2:	4a21      	ldr	r2, [pc, #132]	; (8004b38 <_malloc_r+0xac>)
 8004ab4:	6814      	ldr	r4, [r2, #0]
 8004ab6:	4621      	mov	r1, r4
 8004ab8:	b991      	cbnz	r1, 8004ae0 <_malloc_r+0x54>
 8004aba:	4c20      	ldr	r4, [pc, #128]	; (8004b3c <_malloc_r+0xb0>)
 8004abc:	6823      	ldr	r3, [r4, #0]
 8004abe:	b91b      	cbnz	r3, 8004ac8 <_malloc_r+0x3c>
 8004ac0:	4630      	mov	r0, r6
 8004ac2:	f000 f83d 	bl	8004b40 <_sbrk_r>
 8004ac6:	6020      	str	r0, [r4, #0]
 8004ac8:	4629      	mov	r1, r5
 8004aca:	4630      	mov	r0, r6
 8004acc:	f000 f838 	bl	8004b40 <_sbrk_r>
 8004ad0:	1c43      	adds	r3, r0, #1
 8004ad2:	d124      	bne.n	8004b1e <_malloc_r+0x92>
 8004ad4:	230c      	movs	r3, #12
 8004ad6:	6033      	str	r3, [r6, #0]
 8004ad8:	4630      	mov	r0, r6
 8004ada:	f000 f854 	bl	8004b86 <__malloc_unlock>
 8004ade:	e7e4      	b.n	8004aaa <_malloc_r+0x1e>
 8004ae0:	680b      	ldr	r3, [r1, #0]
 8004ae2:	1b5b      	subs	r3, r3, r5
 8004ae4:	d418      	bmi.n	8004b18 <_malloc_r+0x8c>
 8004ae6:	2b0b      	cmp	r3, #11
 8004ae8:	d90f      	bls.n	8004b0a <_malloc_r+0x7e>
 8004aea:	600b      	str	r3, [r1, #0]
 8004aec:	50cd      	str	r5, [r1, r3]
 8004aee:	18cc      	adds	r4, r1, r3
 8004af0:	4630      	mov	r0, r6
 8004af2:	f000 f848 	bl	8004b86 <__malloc_unlock>
 8004af6:	f104 000b 	add.w	r0, r4, #11
 8004afa:	1d23      	adds	r3, r4, #4
 8004afc:	f020 0007 	bic.w	r0, r0, #7
 8004b00:	1ac3      	subs	r3, r0, r3
 8004b02:	d0d3      	beq.n	8004aac <_malloc_r+0x20>
 8004b04:	425a      	negs	r2, r3
 8004b06:	50e2      	str	r2, [r4, r3]
 8004b08:	e7d0      	b.n	8004aac <_malloc_r+0x20>
 8004b0a:	428c      	cmp	r4, r1
 8004b0c:	684b      	ldr	r3, [r1, #4]
 8004b0e:	bf16      	itet	ne
 8004b10:	6063      	strne	r3, [r4, #4]
 8004b12:	6013      	streq	r3, [r2, #0]
 8004b14:	460c      	movne	r4, r1
 8004b16:	e7eb      	b.n	8004af0 <_malloc_r+0x64>
 8004b18:	460c      	mov	r4, r1
 8004b1a:	6849      	ldr	r1, [r1, #4]
 8004b1c:	e7cc      	b.n	8004ab8 <_malloc_r+0x2c>
 8004b1e:	1cc4      	adds	r4, r0, #3
 8004b20:	f024 0403 	bic.w	r4, r4, #3
 8004b24:	42a0      	cmp	r0, r4
 8004b26:	d005      	beq.n	8004b34 <_malloc_r+0xa8>
 8004b28:	1a21      	subs	r1, r4, r0
 8004b2a:	4630      	mov	r0, r6
 8004b2c:	f000 f808 	bl	8004b40 <_sbrk_r>
 8004b30:	3001      	adds	r0, #1
 8004b32:	d0cf      	beq.n	8004ad4 <_malloc_r+0x48>
 8004b34:	6025      	str	r5, [r4, #0]
 8004b36:	e7db      	b.n	8004af0 <_malloc_r+0x64>
 8004b38:	2000020c 	.word	0x2000020c
 8004b3c:	20000210 	.word	0x20000210

08004b40 <_sbrk_r>:
 8004b40:	b538      	push	{r3, r4, r5, lr}
 8004b42:	4c06      	ldr	r4, [pc, #24]	; (8004b5c <_sbrk_r+0x1c>)
 8004b44:	2300      	movs	r3, #0
 8004b46:	4605      	mov	r5, r0
 8004b48:	4608      	mov	r0, r1
 8004b4a:	6023      	str	r3, [r4, #0]
 8004b4c:	f7fc fc1a 	bl	8001384 <_sbrk>
 8004b50:	1c43      	adds	r3, r0, #1
 8004b52:	d102      	bne.n	8004b5a <_sbrk_r+0x1a>
 8004b54:	6823      	ldr	r3, [r4, #0]
 8004b56:	b103      	cbz	r3, 8004b5a <_sbrk_r+0x1a>
 8004b58:	602b      	str	r3, [r5, #0]
 8004b5a:	bd38      	pop	{r3, r4, r5, pc}
 8004b5c:	200002a0 	.word	0x200002a0

08004b60 <__ascii_mbtowc>:
 8004b60:	b082      	sub	sp, #8
 8004b62:	b901      	cbnz	r1, 8004b66 <__ascii_mbtowc+0x6>
 8004b64:	a901      	add	r1, sp, #4
 8004b66:	b142      	cbz	r2, 8004b7a <__ascii_mbtowc+0x1a>
 8004b68:	b14b      	cbz	r3, 8004b7e <__ascii_mbtowc+0x1e>
 8004b6a:	7813      	ldrb	r3, [r2, #0]
 8004b6c:	600b      	str	r3, [r1, #0]
 8004b6e:	7812      	ldrb	r2, [r2, #0]
 8004b70:	1c10      	adds	r0, r2, #0
 8004b72:	bf18      	it	ne
 8004b74:	2001      	movne	r0, #1
 8004b76:	b002      	add	sp, #8
 8004b78:	4770      	bx	lr
 8004b7a:	4610      	mov	r0, r2
 8004b7c:	e7fb      	b.n	8004b76 <__ascii_mbtowc+0x16>
 8004b7e:	f06f 0001 	mvn.w	r0, #1
 8004b82:	e7f8      	b.n	8004b76 <__ascii_mbtowc+0x16>

08004b84 <__malloc_lock>:
 8004b84:	4770      	bx	lr

08004b86 <__malloc_unlock>:
 8004b86:	4770      	bx	lr

08004b88 <__ascii_wctomb>:
 8004b88:	b149      	cbz	r1, 8004b9e <__ascii_wctomb+0x16>
 8004b8a:	2aff      	cmp	r2, #255	; 0xff
 8004b8c:	bf85      	ittet	hi
 8004b8e:	238a      	movhi	r3, #138	; 0x8a
 8004b90:	6003      	strhi	r3, [r0, #0]
 8004b92:	700a      	strbls	r2, [r1, #0]
 8004b94:	f04f 30ff 	movhi.w	r0, #4294967295
 8004b98:	bf98      	it	ls
 8004b9a:	2001      	movls	r0, #1
 8004b9c:	4770      	bx	lr
 8004b9e:	4608      	mov	r0, r1
 8004ba0:	4770      	bx	lr
	...

08004ba4 <_init>:
 8004ba4:	b5f8      	push	{r3, r4, r5, r6, r7, lr}
 8004ba6:	bf00      	nop
 8004ba8:	bcf8      	pop	{r3, r4, r5, r6, r7}
 8004baa:	bc08      	pop	{r3}
 8004bac:	469e      	mov	lr, r3
 8004bae:	4770      	bx	lr

08004bb0 <_fini>:
 8004bb0:	b5f8      	push	{r3, r4, r5, r6, r7, lr}
 8004bb2:	bf00      	nop
 8004bb4:	bcf8      	pop	{r3, r4, r5, r6, r7}
 8004bb6:	bc08      	pop	{r3}
 8004bb8:	469e      	mov	lr, r3
 8004bba:	4770      	bx	lr
